; ModuleID = 'llvm-link'
source_filename = "llvm-link"
target datalayout = "e-m:e-p270:32:32-p271:32:32-p272:64:64-i64:64-i128:128-f80:128-n8:16:32:64-S128"
target triple = "x86_64-pc-linux-gnu"

%"class.std::mersenne_twister_engine" = type { [312 x i64], i64 }
%struct.DenseMatrix = type { ptr, i64, i64, i8 }
%struct.SparseMatrix = type { ptr, ptr, ptr, i64, i64, i64 }
%struct.LUDecomposition = type { %struct.DenseMatrix, %struct.DenseMatrix, ptr, i64, i32 }
%struct.QRDecomposition = type { %struct.DenseMatrix, %struct.DenseMatrix, i64, i64, i32 }
%struct.EigenDecomposition = type { ptr, ptr, %struct.DenseMatrix, i64, i32 }
%struct.OptimizationState = type { ptr, ptr, double, double, i32, i32, i32, i64 }
%struct.OptimizationOptions = type { double, double, i32, i32, i32, i8 }
%class.anon = type { i8 }
%struct.ODEResult = type { ptr, ptr, ptr, i64, i64, i32 }
%struct.FFTResult = type { ptr, ptr, i64 }
%struct.Polynomial = type { ptr, i64 }
%struct.SplineInterpolation = type { ptr, ptr, ptr, i64, i64 }
%"class.std::uniform_real_distribution" = type { %"struct.std::uniform_real_distribution<>::param_type" }
%"struct.std::uniform_real_distribution<>::param_type" = type { double, double }
%"struct.std::__detail::_Adaptor" = type { ptr }
%"class.std::normal_distribution" = type <{ %"struct.std::uniform_real_distribution<>::param_type", double, i8, [7 x i8] }>

$_ZNSt23mersenne_twister_engineImLm64ELm312ELm156ELm31ELm13043109905998158313ELm29ELm6148914691236517205ELm17ELm8202884508482404352ELm37ELm18444473444759240704ELm43ELm6364136223846793005EEC2Ev = comdat any

$_ZNSt23mersenne_twister_engineImLm64ELm312ELm156ELm31ELm13043109905998158313ELm29ELm6148914691236517205ELm17ELm8202884508482404352ELm37ELm18444473444759240704ELm43ELm6364136223846793005EEC2Em = comdat any

$_ZNSt23mersenne_twister_engineImLm64ELm312ELm156ELm31ELm13043109905998158313ELm29ELm6148914691236517205ELm17ELm8202884508482404352ELm37ELm18444473444759240704ELm43ELm6364136223846793005EE4seedEm = comdat any

$_ZNSt8__detail5__modImTnT_Lm0ETnS1_Lm1ETnS1_Lm0EEES1_S1_ = comdat any

$_ZNSt8__detail5__modImTnT_Lm312ETnS1_Lm1ETnS1_Lm0EEES1_S1_ = comdat any

$_ZNSt8__detail4_ModImLm312ELm1ELm0ELb1ELb1EE6__calcEm = comdat any

$_ZNSt8__detail4_ModImLm0ELm1ELm0ELb1ELb0EE6__calcEm = comdat any

$_ZSt3minImERKT_S2_S2_ = comdat any

$_ZSt4sortIPdEvT_S1_ = comdat any

$_ZN9__gnu_cxx5__ops16__iter_less_iterEv = comdat any

$_ZSt6__sortIPdN9__gnu_cxx5__ops15_Iter_less_iterEEvT_S4_T0_ = comdat any

$_ZSt4__lgIlET_S0_ = comdat any

$_ZSt16__introsort_loopIPdlN9__gnu_cxx5__ops15_Iter_less_iterEEvT_S4_T0_T1_ = comdat any

$_ZSt22__final_insertion_sortIPdN9__gnu_cxx5__ops15_Iter_less_iterEEvT_S4_T0_ = comdat any

$_ZSt16__insertion_sortIPdN9__gnu_cxx5__ops15_Iter_less_iterEEvT_S4_T0_ = comdat any

$_ZSt26__unguarded_insertion_sortIPdN9__gnu_cxx5__ops15_Iter_less_iterEEvT_S4_T0_ = comdat any

$_ZN9__gnu_cxx5__ops15__val_comp_iterENS0_15_Iter_less_iterE = comdat any

$_ZSt25__unguarded_linear_insertIPdN9__gnu_cxx5__ops14_Val_less_iterEEvT_T0_ = comdat any

$_ZNK9__gnu_cxx5__ops14_Val_less_iterclIdPdEEbRT_T0_ = comdat any

$_ZNK9__gnu_cxx5__ops15_Iter_less_iterclIPdS3_EEbT_T0_ = comdat any

$_ZSt12__miter_baseIPdET_S1_ = comdat any

$_ZSt23__copy_move_backward_a2ILb1EPdS0_ET1_T0_S2_S1_ = comdat any

$_ZSt9__advanceIPdlEvRT_T0_St26random_access_iterator_tag = comdat any

$_ZSt14__partial_sortIPdN9__gnu_cxx5__ops15_Iter_less_iterEEvT_S4_S4_T0_ = comdat any

$_ZSt27__unguarded_partition_pivotIPdN9__gnu_cxx5__ops15_Iter_less_iterEET_S4_S4_T0_ = comdat any

$_ZSt22__move_median_to_firstIPdN9__gnu_cxx5__ops15_Iter_less_iterEEvT_S4_S4_S4_T0_ = comdat any

$_ZSt21__unguarded_partitionIPdN9__gnu_cxx5__ops15_Iter_less_iterEET_S4_S4_S4_T0_ = comdat any

$_ZSt9iter_swapIPdS0_EvT_T0_ = comdat any

$_ZSt4swapIdENSt9enable_ifIXsr6__and_ISt6__not_ISt15__is_tuple_likeIT_EESt21is_move_constructibleIS3_ESt18is_move_assignableIS3_EEE5valueEvE4typeERS3_SC_ = comdat any

$_ZSt13__heap_selectIPdN9__gnu_cxx5__ops15_Iter_less_iterEEvT_S4_S4_T0_ = comdat any

$_ZSt11__sort_heapIPdN9__gnu_cxx5__ops15_Iter_less_iterEEvT_S4_RT0_ = comdat any

$_ZSt10__pop_heapIPdN9__gnu_cxx5__ops15_Iter_less_iterEEvT_S4_S4_RT0_ = comdat any

$_ZSt13__adjust_heapIPdldN9__gnu_cxx5__ops15_Iter_less_iterEEvT_T0_S5_T1_T2_ = comdat any

$_ZN9__gnu_cxx5__ops14_Iter_less_valC2ENS0_15_Iter_less_iterE = comdat any

$_ZSt11__push_heapIPdldN9__gnu_cxx5__ops14_Iter_less_valEEvT_T0_S5_T1_RT2_ = comdat any

$_ZNK9__gnu_cxx5__ops14_Iter_less_valclIPddEEbT_RT0_ = comdat any

$_ZSt11__make_heapIPdN9__gnu_cxx5__ops15_Iter_less_iterEEvT_S4_RT0_ = comdat any

$_ZSt11__bit_widthImEiT_ = comdat any

$_ZSt13__countl_zeroImEiT_ = comdat any

$_ZNSt25uniform_real_distributionIdEC2Edd = comdat any

$_ZNSt25uniform_real_distributionIdEclISt23mersenne_twister_engineImLm64ELm312ELm156ELm31ELm13043109905998158313ELm29ELm6148914691236517205ELm17ELm8202884508482404352ELm37ELm18444473444759240704ELm43ELm6364136223846793005EEEEdRT_ = comdat any

$_ZNSt25uniform_real_distributionIdEclISt23mersenne_twister_engineImLm64ELm312ELm156ELm31ELm13043109905998158313ELm29ELm6148914691236517205ELm17ELm8202884508482404352ELm37ELm18444473444759240704ELm43ELm6364136223846793005EEEEdRT_RKNS0_10param_typeE = comdat any

$_ZNSt8__detail8_AdaptorISt23mersenne_twister_engineImLm64ELm312ELm156ELm31ELm13043109905998158313ELm29ELm6148914691236517205ELm17ELm8202884508482404352ELm37ELm18444473444759240704ELm43ELm6364136223846793005EEdEC2ERS2_ = comdat any

$_ZNSt8__detail8_AdaptorISt23mersenne_twister_engineImLm64ELm312ELm156ELm31ELm13043109905998158313ELm29ELm6148914691236517205ELm17ELm8202884508482404352ELm37ELm18444473444759240704ELm43ELm6364136223846793005EEdEclEv = comdat any

$_ZNKSt25uniform_real_distributionIdE10param_type1bEv = comdat any

$_ZNKSt25uniform_real_distributionIdE10param_type1aEv = comdat any

$_ZSt18generate_canonicalIdLm53ESt23mersenne_twister_engineImLm64ELm312ELm156ELm31ELm13043109905998158313ELm29ELm6148914691236517205ELm17ELm8202884508482404352ELm37ELm18444473444759240704ELm43ELm6364136223846793005EEET_RT1_ = comdat any

$_ZNSt23mersenne_twister_engineImLm64ELm312ELm156ELm31ELm13043109905998158313ELm29ELm6148914691236517205ELm17ELm8202884508482404352ELm37ELm18444473444759240704ELm43ELm6364136223846793005EE3maxEv = comdat any

$_ZNSt23mersenne_twister_engineImLm64ELm312ELm156ELm31ELm13043109905998158313ELm29ELm6148914691236517205ELm17ELm8202884508482404352ELm37ELm18444473444759240704ELm43ELm6364136223846793005EE3minEv = comdat any

$_ZSt3loge = comdat any

$_ZSt3maxImERKT_S2_S2_ = comdat any

$_ZNSt23mersenne_twister_engineImLm64ELm312ELm156ELm31ELm13043109905998158313ELm29ELm6148914691236517205ELm17ELm8202884508482404352ELm37ELm18444473444759240704ELm43ELm6364136223846793005EEclEv = comdat any

$_ZNSt23mersenne_twister_engineImLm64ELm312ELm156ELm31ELm13043109905998158313ELm29ELm6148914691236517205ELm17ELm8202884508482404352ELm37ELm18444473444759240704ELm43ELm6364136223846793005EE11_M_gen_randEv = comdat any

$_ZNSt25uniform_real_distributionIdE10param_typeC2Edd = comdat any

$_ZNSt19normal_distributionIdEC2Edd = comdat any

$_ZNSt19normal_distributionIdEclISt23mersenne_twister_engineImLm64ELm312ELm156ELm31ELm13043109905998158313ELm29ELm6148914691236517205ELm17ELm8202884508482404352ELm37ELm18444473444759240704ELm43ELm6364136223846793005EEEEdRT_ = comdat any

$_ZNSt19normal_distributionIdEclISt23mersenne_twister_engineImLm64ELm312ELm156ELm31ELm13043109905998158313ELm29ELm6148914691236517205ELm17ELm8202884508482404352ELm37ELm18444473444759240704ELm43ELm6364136223846793005EEEEdRT_RKNS0_10param_typeE = comdat any

$_ZNKSt19normal_distributionIdE10param_type6stddevEv = comdat any

$_ZNKSt19normal_distributionIdE10param_type4meanEv = comdat any

$_ZNSt19normal_distributionIdE10param_typeC2Edd = comdat any

@llvm.global_ctors = appending global [1 x { i32, ptr, ptr }] [{ i32, ptr, ptr } { i32 65535, ptr @_GLOBAL__sub_I_numerics.cpp, ptr null }]
@_ZL3rng = internal global %"class.std::mersenne_twister_engine" zeroinitializer, align 8, !dbg !0
@.str = private unnamed_addr constant [8 x i8] c"SUCCESS\00", align 1, !dbg !298
@.str.1 = private unnamed_addr constant [20 x i8] c"ERROR_INVALID_INPUT\00", align 1, !dbg !306
@.str.2 = private unnamed_addr constant [22 x i8] c"ERROR_SINGULAR_MATRIX\00", align 1, !dbg !311
@.str.3 = private unnamed_addr constant [20 x i8] c"ERROR_NOT_CONVERGED\00", align 1, !dbg !316
@.str.4 = private unnamed_addr constant [20 x i8] c"ERROR_OUT_OF_MEMORY\00", align 1, !dbg !318
@.str.5 = private unnamed_addr constant [25 x i8] c"ERROR_DIMENSION_MISMATCH\00", align 1, !dbg !320
@.str.6 = private unnamed_addr constant [14 x i8] c"UNKNOWN_ERROR\00", align 1, !dbg !325
@.str.7 = private unnamed_addr constant [8 x i8] c"%10.4f \00", align 1, !dbg !330
@.str.8 = private unnamed_addr constant [2 x i8] c"\0A\00", align 1, !dbg !332
@.str.9 = private unnamed_addr constant [2 x i8] c"[\00", align 1, !dbg !337
@.str.10 = private unnamed_addr constant [5 x i8] c"%.4f\00", align 1, !dbg !339
@.str.11 = private unnamed_addr constant [3 x i8] c", \00", align 1, !dbg !344
@.str.12 = private unnamed_addr constant [3 x i8] c"]\0A\00", align 1, !dbg !349
@.str.13 = private unnamed_addr constant [94 x i8] c"/usr/bin/../lib64/gcc/x86_64-pc-linux-gnu/15.2.1/../../../../include/c++/15.2.1/bits/random.h\00", align 1, !dbg !351
@__PRETTY_FUNCTION__._ZNSt25uniform_real_distributionIdE10param_typeC2Edd = private unnamed_addr constant [100 x i8] c"std::uniform_real_distribution<>::param_type::param_type(_RealType, _RealType) [_RealType = double]\00", align 1, !dbg !356
@.str.14 = private unnamed_addr constant [13 x i8] c"_M_a <= _M_b\00", align 1, !dbg !361
@__PRETTY_FUNCTION__._ZNSt19normal_distributionIdE10param_typeC2Edd = private unnamed_addr constant [94 x i8] c"std::normal_distribution<>::param_type::param_type(_RealType, _RealType) [_RealType = double]\00", align 1, !dbg !366
@.str.15 = private unnamed_addr constant [25 x i8] c"_M_stddev > _RealType(0)\00", align 1, !dbg !368

; Function Attrs: noinline sspstrong uwtable
define internal void @_GLOBAL__sub_I_numerics.cpp() #0 section ".text.startup" !dbg !1646 {
  call void @__cxx_global_var_init(), !dbg !1648
  ret void
}

; Function Attrs: noinline sspstrong uwtable
define internal void @__cxx_global_var_init() #0 section ".text.startup" !dbg !1649 {
  call void @_ZNSt23mersenne_twister_engineImLm64ELm312ELm156ELm31ELm13043109905998158313ELm29ELm6148914691236517205ELm17ELm8202884508482404352ELm37ELm18444473444759240704ELm43ELm6364136223846793005EEC2Ev(ptr noundef nonnull align 8 dereferenceable(2504) @_ZL3rng), !dbg !1650
  ret void, !dbg !1650
}

; Function Attrs: mustprogress noinline optnone sspstrong uwtable
define linkonce_odr void @_ZNSt23mersenne_twister_engineImLm64ELm312ELm156ELm31ELm13043109905998158313ELm29ELm6148914691236517205ELm17ELm8202884508482404352ELm37ELm18444473444759240704ELm43ELm6364136223846793005EEC2Ev(ptr noundef nonnull align 8 dereferenceable(2504) %0) unnamed_addr #1 comdat align 2 !dbg !1651 {
  %2 = alloca ptr, align 8
  store ptr %0, ptr %2, align 8
    #dbg_declare(ptr %2, !1652, !DIExpression(), !1654)
  %3 = load ptr, ptr %2, align 8
  call void @_ZNSt23mersenne_twister_engineImLm64ELm312ELm156ELm31ELm13043109905998158313ELm29ELm6148914691236517205ELm17ELm8202884508482404352ELm37ELm18444473444759240704ELm43ELm6364136223846793005EEC2Em(ptr noundef nonnull align 8 dereferenceable(2504) %3, i64 noundef 5489), !dbg !1655
  ret void, !dbg !1656
}

; Function Attrs: mustprogress noinline optnone sspstrong uwtable
define linkonce_odr void @_ZNSt23mersenne_twister_engineImLm64ELm312ELm156ELm31ELm13043109905998158313ELm29ELm6148914691236517205ELm17ELm8202884508482404352ELm37ELm18444473444759240704ELm43ELm6364136223846793005EEC2Em(ptr noundef nonnull align 8 dereferenceable(2504) %0, i64 noundef %1) unnamed_addr #1 comdat align 2 !dbg !1657 {
  %3 = alloca ptr, align 8
  %4 = alloca i64, align 8
  store ptr %0, ptr %3, align 8
    #dbg_declare(ptr %3, !1658, !DIExpression(), !1659)
  store i64 %1, ptr %4, align 8
    #dbg_declare(ptr %4, !1660, !DIExpression(), !1661)
  %5 = load ptr, ptr %3, align 8
  %6 = load i64, ptr %4, align 8, !dbg !1662
  call void @_ZNSt23mersenne_twister_engineImLm64ELm312ELm156ELm31ELm13043109905998158313ELm29ELm6148914691236517205ELm17ELm8202884508482404352ELm37ELm18444473444759240704ELm43ELm6364136223846793005EE4seedEm(ptr noundef nonnull align 8 dereferenceable(2504) %5, i64 noundef %6), !dbg !1664
  ret void, !dbg !1665
}

; Function Attrs: mustprogress noinline optnone sspstrong uwtable
define linkonce_odr void @_ZNSt23mersenne_twister_engineImLm64ELm312ELm156ELm31ELm13043109905998158313ELm29ELm6148914691236517205ELm17ELm8202884508482404352ELm37ELm18444473444759240704ELm43ELm6364136223846793005EE4seedEm(ptr noundef nonnull align 8 dereferenceable(2504) %0, i64 noundef %1) #1 comdat align 2 !dbg !1666 {
  %3 = alloca ptr, align 8
  %4 = alloca i64, align 8
  %5 = alloca i64, align 8
  %6 = alloca i64, align 8
  store ptr %0, ptr %3, align 8
    #dbg_declare(ptr %3, !1667, !DIExpression(), !1668)
  store i64 %1, ptr %4, align 8
    #dbg_declare(ptr %4, !1669, !DIExpression(), !1670)
  %7 = load ptr, ptr %3, align 8
  %8 = load i64, ptr %4, align 8, !dbg !1671
  %9 = call noundef i64 @_ZNSt8__detail5__modImTnT_Lm0ETnS1_Lm1ETnS1_Lm0EEES1_S1_(i64 noundef %8), !dbg !1672
  %10 = getelementptr inbounds nuw %"class.std::mersenne_twister_engine", ptr %7, i32 0, i32 0, !dbg !1673
  %11 = getelementptr inbounds [312 x i64], ptr %10, i64 0, i64 0, !dbg !1673
  store i64 %9, ptr %11, align 8, !dbg !1674
    #dbg_declare(ptr %5, !1675, !DIExpression(), !1677)
  store i64 1, ptr %5, align 8, !dbg !1677
  br label %12, !dbg !1678

12:                                               ; preds = %36, %2
  %13 = load i64, ptr %5, align 8, !dbg !1679
  %14 = icmp ult i64 %13, 312, !dbg !1681
  br i1 %14, label %15, label %39, !dbg !1682

15:                                               ; preds = %12
    #dbg_declare(ptr %6, !1683, !DIExpression(), !1685)
  %16 = getelementptr inbounds nuw %"class.std::mersenne_twister_engine", ptr %7, i32 0, i32 0, !dbg !1686
  %17 = load i64, ptr %5, align 8, !dbg !1687
  %18 = sub i64 %17, 1, !dbg !1688
  %19 = getelementptr inbounds nuw [312 x i64], ptr %16, i64 0, i64 %18, !dbg !1686
  %20 = load i64, ptr %19, align 8, !dbg !1686
  store i64 %20, ptr %6, align 8, !dbg !1685
  %21 = load i64, ptr %6, align 8, !dbg !1689
  %22 = lshr i64 %21, 62, !dbg !1690
  %23 = load i64, ptr %6, align 8, !dbg !1691
  %24 = xor i64 %23, %22, !dbg !1691
  store i64 %24, ptr %6, align 8, !dbg !1691
  %25 = load i64, ptr %6, align 8, !dbg !1692
  %26 = mul i64 %25, 6364136223846793005, !dbg !1692
  store i64 %26, ptr %6, align 8, !dbg !1692
  %27 = load i64, ptr %5, align 8, !dbg !1693
  %28 = call noundef i64 @_ZNSt8__detail5__modImTnT_Lm312ETnS1_Lm1ETnS1_Lm0EEES1_S1_(i64 noundef %27), !dbg !1694
  %29 = load i64, ptr %6, align 8, !dbg !1695
  %30 = add i64 %29, %28, !dbg !1695
  store i64 %30, ptr %6, align 8, !dbg !1695
  %31 = load i64, ptr %6, align 8, !dbg !1696
  %32 = call noundef i64 @_ZNSt8__detail5__modImTnT_Lm0ETnS1_Lm1ETnS1_Lm0EEES1_S1_(i64 noundef %31), !dbg !1697
  %33 = getelementptr inbounds nuw %"class.std::mersenne_twister_engine", ptr %7, i32 0, i32 0, !dbg !1698
  %34 = load i64, ptr %5, align 8, !dbg !1699
  %35 = getelementptr inbounds nuw [312 x i64], ptr %33, i64 0, i64 %34, !dbg !1698
  store i64 %32, ptr %35, align 8, !dbg !1700
  br label %36, !dbg !1701

36:                                               ; preds = %15
  %37 = load i64, ptr %5, align 8, !dbg !1702
  %38 = add i64 %37, 1, !dbg !1702
  store i64 %38, ptr %5, align 8, !dbg !1702
  br label %12, !dbg !1703, !llvm.loop !1704

39:                                               ; preds = %12
  %40 = getelementptr inbounds nuw %"class.std::mersenne_twister_engine", ptr %7, i32 0, i32 1, !dbg !1707
  store i64 312, ptr %40, align 8, !dbg !1708
  ret void, !dbg !1709
}

; Function Attrs: mustprogress noinline optnone sspstrong uwtable
define linkonce_odr noundef i64 @_ZNSt8__detail5__modImTnT_Lm0ETnS1_Lm1ETnS1_Lm0EEES1_S1_(i64 noundef %0) #1 comdat !dbg !1710 {
  %2 = alloca i64, align 8
  store i64 %0, ptr %2, align 8
    #dbg_declare(ptr %2, !1718, !DIExpression(), !1719)
  %3 = load i64, ptr %2, align 8, !dbg !1720
  %4 = call noundef i64 @_ZNSt8__detail4_ModImLm0ELm1ELm0ELb1ELb0EE6__calcEm(i64 noundef %3), !dbg !1722
  ret i64 %4, !dbg !1723
}

; Function Attrs: mustprogress noinline optnone sspstrong uwtable
define linkonce_odr noundef i64 @_ZNSt8__detail5__modImTnT_Lm312ETnS1_Lm1ETnS1_Lm0EEES1_S1_(i64 noundef %0) #1 comdat !dbg !1724 {
  %2 = alloca i64, align 8
  store i64 %0, ptr %2, align 8
    #dbg_declare(ptr %2, !1727, !DIExpression(), !1728)
  %3 = load i64, ptr %2, align 8, !dbg !1729
  %4 = call noundef i64 @_ZNSt8__detail4_ModImLm312ELm1ELm0ELb1ELb1EE6__calcEm(i64 noundef %3), !dbg !1731
  ret i64 %4, !dbg !1732
}

; Function Attrs: mustprogress noinline nounwind optnone sspstrong uwtable
define linkonce_odr noundef i64 @_ZNSt8__detail4_ModImLm312ELm1ELm0ELb1ELb1EE6__calcEm(i64 noundef %0) #2 comdat align 2 !dbg !1733 {
  %2 = alloca i64, align 8
  %3 = alloca i64, align 8
  store i64 %0, ptr %2, align 8
    #dbg_declare(ptr %2, !1740, !DIExpression(), !1741)
    #dbg_declare(ptr %3, !1742, !DIExpression(), !1743)
  %4 = load i64, ptr %2, align 8, !dbg !1744
  %5 = mul i64 1, %4, !dbg !1745
  %6 = add i64 %5, 0, !dbg !1746
  store i64 %6, ptr %3, align 8, !dbg !1743
  %7 = load i64, ptr %3, align 8, !dbg !1747
  %8 = urem i64 %7, 312, !dbg !1747
  store i64 %8, ptr %3, align 8, !dbg !1747
  %9 = load i64, ptr %3, align 8, !dbg !1749
  ret i64 %9, !dbg !1750
}

; Function Attrs: mustprogress noinline nounwind optnone sspstrong uwtable
define linkonce_odr noundef i64 @_ZNSt8__detail4_ModImLm0ELm1ELm0ELb1ELb0EE6__calcEm(i64 noundef %0) #2 comdat align 2 !dbg !1751 {
  %2 = alloca i64, align 8
  %3 = alloca i64, align 8
  store i64 %0, ptr %2, align 8
    #dbg_declare(ptr %2, !1757, !DIExpression(), !1758)
    #dbg_declare(ptr %3, !1759, !DIExpression(), !1760)
  %4 = load i64, ptr %2, align 8, !dbg !1761
  %5 = mul i64 1, %4, !dbg !1762
  %6 = add i64 %5, 0, !dbg !1763
  store i64 %6, ptr %3, align 8, !dbg !1760
  %7 = load i64, ptr %3, align 8, !dbg !1764
  ret i64 %7, !dbg !1765
}

; Function Attrs: mustprogress noinline nounwind optnone sspstrong uwtable
define void @dense_matrix_create(ptr dead_on_unwind noalias writable sret(%struct.DenseMatrix) align 8 %0, i64 noundef %1, i64 noundef %2) #2 !dbg !1766 {
  %4 = alloca i64, align 8
  %5 = alloca i64, align 8
  store i64 %1, ptr %4, align 8
    #dbg_declare(ptr %4, !1775, !DIExpression(), !1776)
  store i64 %2, ptr %5, align 8
    #dbg_declare(ptr %5, !1777, !DIExpression(), !1778)
    #dbg_declare(ptr %0, !1779, !DIExpression(), !1780)
  %6 = load i64, ptr %4, align 8, !dbg !1781
  %7 = getelementptr inbounds nuw %struct.DenseMatrix, ptr %0, i32 0, i32 1, !dbg !1782
  store i64 %6, ptr %7, align 8, !dbg !1783
  %8 = load i64, ptr %5, align 8, !dbg !1784
  %9 = getelementptr inbounds nuw %struct.DenseMatrix, ptr %0, i32 0, i32 2, !dbg !1785
  store i64 %8, ptr %9, align 8, !dbg !1786
  %10 = load i64, ptr %4, align 8, !dbg !1787
  %11 = load i64, ptr %5, align 8, !dbg !1788
  %12 = mul i64 %10, %11, !dbg !1789
  %13 = call noalias ptr @calloc(i64 noundef %12, i64 noundef 8) #12, !dbg !1790
  %14 = getelementptr inbounds nuw %struct.DenseMatrix, ptr %0, i32 0, i32 0, !dbg !1791
  store ptr %13, ptr %14, align 8, !dbg !1792
  %15 = getelementptr inbounds nuw %struct.DenseMatrix, ptr %0, i32 0, i32 3, !dbg !1793
  store i8 1, ptr %15, align 8, !dbg !1794
  ret void, !dbg !1795
}

; Function Attrs: nounwind allocsize(0,1)
declare noalias ptr @calloc(i64 noundef, i64 noundef) #3

; Function Attrs: mustprogress noinline nounwind optnone sspstrong uwtable
define void @dense_matrix_destroy(ptr noundef %0) #2 !dbg !1796 {
  %2 = alloca ptr, align 8
  store ptr %0, ptr %2, align 8
    #dbg_declare(ptr %2, !1800, !DIExpression(), !1801)
  %3 = load ptr, ptr %2, align 8, !dbg !1802
  %4 = icmp ne ptr %3, null, !dbg !1802
  br i1 %4, label %5, label %21, !dbg !1804

5:                                                ; preds = %1
  %6 = load ptr, ptr %2, align 8, !dbg !1805
  %7 = getelementptr inbounds nuw %struct.DenseMatrix, ptr %6, i32 0, i32 3, !dbg !1806
  %8 = load i8, ptr %7, align 8, !dbg !1806
  %9 = trunc i8 %8 to i1, !dbg !1806
  br i1 %9, label %10, label %21, !dbg !1807

10:                                               ; preds = %5
  %11 = load ptr, ptr %2, align 8, !dbg !1808
  %12 = getelementptr inbounds nuw %struct.DenseMatrix, ptr %11, i32 0, i32 0, !dbg !1809
  %13 = load ptr, ptr %12, align 8, !dbg !1809
  %14 = icmp ne ptr %13, null, !dbg !1808
  br i1 %14, label %15, label %21, !dbg !1807

15:                                               ; preds = %10
  %16 = load ptr, ptr %2, align 8, !dbg !1810
  %17 = getelementptr inbounds nuw %struct.DenseMatrix, ptr %16, i32 0, i32 0, !dbg !1812
  %18 = load ptr, ptr %17, align 8, !dbg !1812
  call void @free(ptr noundef %18) #13, !dbg !1813
  %19 = load ptr, ptr %2, align 8, !dbg !1814
  %20 = getelementptr inbounds nuw %struct.DenseMatrix, ptr %19, i32 0, i32 0, !dbg !1815
  store ptr null, ptr %20, align 8, !dbg !1816
  br label %21, !dbg !1817

21:                                               ; preds = %15, %10, %5, %1
  ret void, !dbg !1818
}

; Function Attrs: nounwind
declare void @free(ptr noundef) #4

; Function Attrs: mustprogress noinline nounwind optnone sspstrong uwtable
define void @dense_matrix_copy(ptr dead_on_unwind noalias writable sret(%struct.DenseMatrix) align 8 %0, ptr noundef %1) #2 !dbg !1819 {
  %3 = alloca ptr, align 8
  store ptr %1, ptr %3, align 8
    #dbg_declare(ptr %3, !1824, !DIExpression(), !1825)
    #dbg_declare(ptr %0, !1826, !DIExpression(), !1827)
  %4 = load ptr, ptr %3, align 8, !dbg !1828
  %5 = getelementptr inbounds nuw %struct.DenseMatrix, ptr %4, i32 0, i32 1, !dbg !1829
  %6 = load i64, ptr %5, align 8, !dbg !1829
  %7 = load ptr, ptr %3, align 8, !dbg !1830
  %8 = getelementptr inbounds nuw %struct.DenseMatrix, ptr %7, i32 0, i32 2, !dbg !1831
  %9 = load i64, ptr %8, align 8, !dbg !1831
  call void @dense_matrix_create(ptr dead_on_unwind writable sret(%struct.DenseMatrix) align 8 %0, i64 noundef %6, i64 noundef %9), !dbg !1832
  %10 = getelementptr inbounds nuw %struct.DenseMatrix, ptr %0, i32 0, i32 0, !dbg !1833
  %11 = load ptr, ptr %10, align 8, !dbg !1833
  %12 = load ptr, ptr %3, align 8, !dbg !1834
  %13 = getelementptr inbounds nuw %struct.DenseMatrix, ptr %12, i32 0, i32 0, !dbg !1835
  %14 = load ptr, ptr %13, align 8, !dbg !1835
  %15 = load ptr, ptr %3, align 8, !dbg !1836
  %16 = getelementptr inbounds nuw %struct.DenseMatrix, ptr %15, i32 0, i32 1, !dbg !1837
  %17 = load i64, ptr %16, align 8, !dbg !1837
  %18 = load ptr, ptr %3, align 8, !dbg !1838
  %19 = getelementptr inbounds nuw %struct.DenseMatrix, ptr %18, i32 0, i32 2, !dbg !1839
  %20 = load i64, ptr %19, align 8, !dbg !1839
  %21 = mul i64 %17, %20, !dbg !1840
  %22 = mul i64 %21, 8, !dbg !1841
  call void @llvm.memcpy.p0.p0.i64(ptr align 8 %11, ptr align 8 %14, i64 %22, i1 false), !dbg !1842
  ret void, !dbg !1843
}

; Function Attrs: nocallback nofree nounwind willreturn memory(argmem: readwrite)
declare void @llvm.memcpy.p0.p0.i64(ptr noalias writeonly captures(none), ptr noalias readonly captures(none), i64, i1 immarg) #5

; Function Attrs: mustprogress noinline nounwind optnone sspstrong uwtable
define void @dense_matrix_set_zero(ptr noundef %0) #2 !dbg !1844 {
  %2 = alloca ptr, align 8
  store ptr %0, ptr %2, align 8
    #dbg_declare(ptr %2, !1845, !DIExpression(), !1846)
  %3 = load ptr, ptr %2, align 8, !dbg !1847
  %4 = getelementptr inbounds nuw %struct.DenseMatrix, ptr %3, i32 0, i32 0, !dbg !1848
  %5 = load ptr, ptr %4, align 8, !dbg !1848
  %6 = load ptr, ptr %2, align 8, !dbg !1849
  %7 = getelementptr inbounds nuw %struct.DenseMatrix, ptr %6, i32 0, i32 1, !dbg !1850
  %8 = load i64, ptr %7, align 8, !dbg !1850
  %9 = load ptr, ptr %2, align 8, !dbg !1851
  %10 = getelementptr inbounds nuw %struct.DenseMatrix, ptr %9, i32 0, i32 2, !dbg !1852
  %11 = load i64, ptr %10, align 8, !dbg !1852
  %12 = mul i64 %8, %11, !dbg !1853
  %13 = mul i64 %12, 8, !dbg !1854
  call void @llvm.memset.p0.i64(ptr align 8 %5, i8 0, i64 %13, i1 false), !dbg !1855
  ret void, !dbg !1856
}

; Function Attrs: nocallback nofree nounwind willreturn memory(argmem: write)
declare void @llvm.memset.p0.i64(ptr writeonly captures(none), i8, i64, i1 immarg) #6

; Function Attrs: mustprogress noinline optnone sspstrong uwtable
define void @dense_matrix_set_identity(ptr noundef %0) #1 !dbg !1857 {
  %2 = alloca ptr, align 8
  %3 = alloca i64, align 8
  %4 = alloca i64, align 8
  store ptr %0, ptr %2, align 8
    #dbg_declare(ptr %2, !1858, !DIExpression(), !1859)
  %5 = load ptr, ptr %2, align 8, !dbg !1860
  call void @dense_matrix_set_zero(ptr noundef %5), !dbg !1861
    #dbg_declare(ptr %3, !1862, !DIExpression(), !1863)
  %6 = load ptr, ptr %2, align 8, !dbg !1864
  %7 = getelementptr inbounds nuw %struct.DenseMatrix, ptr %6, i32 0, i32 1, !dbg !1865
  %8 = load ptr, ptr %2, align 8, !dbg !1866
  %9 = getelementptr inbounds nuw %struct.DenseMatrix, ptr %8, i32 0, i32 2, !dbg !1867
  %10 = call noundef nonnull align 8 dereferenceable(8) ptr @_ZSt3minImERKT_S2_S2_(ptr noundef nonnull align 8 dereferenceable(8) %7, ptr noundef nonnull align 8 dereferenceable(8) %9), !dbg !1868
  %11 = load i64, ptr %10, align 8, !dbg !1868
  store i64 %11, ptr %3, align 8, !dbg !1863
    #dbg_declare(ptr %4, !1869, !DIExpression(), !1871)
  store i64 0, ptr %4, align 8, !dbg !1871
  br label %12, !dbg !1872

12:                                               ; preds = %28, %1
  %13 = load i64, ptr %4, align 8, !dbg !1873
  %14 = load i64, ptr %3, align 8, !dbg !1875
  %15 = icmp ult i64 %13, %14, !dbg !1876
  br i1 %15, label %16, label %31, !dbg !1877

16:                                               ; preds = %12
  %17 = load ptr, ptr %2, align 8, !dbg !1878
  %18 = getelementptr inbounds nuw %struct.DenseMatrix, ptr %17, i32 0, i32 0, !dbg !1880
  %19 = load ptr, ptr %18, align 8, !dbg !1880
  %20 = load i64, ptr %4, align 8, !dbg !1881
  %21 = load ptr, ptr %2, align 8, !dbg !1882
  %22 = getelementptr inbounds nuw %struct.DenseMatrix, ptr %21, i32 0, i32 2, !dbg !1883
  %23 = load i64, ptr %22, align 8, !dbg !1883
  %24 = mul i64 %20, %23, !dbg !1884
  %25 = load i64, ptr %4, align 8, !dbg !1885
  %26 = add i64 %24, %25, !dbg !1886
  %27 = getelementptr inbounds nuw double, ptr %19, i64 %26, !dbg !1878
  store double 1.000000e+00, ptr %27, align 8, !dbg !1887
  br label %28, !dbg !1888

28:                                               ; preds = %16
  %29 = load i64, ptr %4, align 8, !dbg !1889
  %30 = add i64 %29, 1, !dbg !1889
  store i64 %30, ptr %4, align 8, !dbg !1889
  br label %12, !dbg !1890, !llvm.loop !1891

31:                                               ; preds = %12
  ret void, !dbg !1893
}

; Function Attrs: mustprogress noinline nounwind optnone sspstrong uwtable
define linkonce_odr noundef nonnull align 8 dereferenceable(8) ptr @_ZSt3minImERKT_S2_S2_(ptr noundef nonnull align 8 dereferenceable(8) %0, ptr noundef nonnull align 8 dereferenceable(8) %1) #2 comdat !dbg !1894 {
  %3 = alloca ptr, align 8
  %4 = alloca ptr, align 8
  %5 = alloca ptr, align 8
  store ptr %0, ptr %4, align 8
    #dbg_declare(ptr %4, !1900, !DIExpression(), !1901)
  store ptr %1, ptr %5, align 8
    #dbg_declare(ptr %5, !1902, !DIExpression(), !1903)
  %6 = load ptr, ptr %5, align 8, !dbg !1904, !nonnull !57, !align !1906
  %7 = load i64, ptr %6, align 8, !dbg !1904
  %8 = load ptr, ptr %4, align 8, !dbg !1907, !nonnull !57, !align !1906
  %9 = load i64, ptr %8, align 8, !dbg !1907
  %10 = icmp ult i64 %7, %9, !dbg !1908
  br i1 %10, label %11, label %13, !dbg !1908

11:                                               ; preds = %2
  %12 = load ptr, ptr %5, align 8, !dbg !1909, !nonnull !57, !align !1906
  store ptr %12, ptr %3, align 8, !dbg !1910
  br label %15, !dbg !1910

13:                                               ; preds = %2
  %14 = load ptr, ptr %4, align 8, !dbg !1911, !nonnull !57, !align !1906
  store ptr %14, ptr %3, align 8, !dbg !1912
  br label %15, !dbg !1912

15:                                               ; preds = %13, %11
  %16 = load ptr, ptr %3, align 8, !dbg !1913
  ret ptr %16, !dbg !1913
}

; Function Attrs: mustprogress noinline optnone sspstrong uwtable
define i32 @dense_matrix_resize(ptr noundef %0, i64 noundef %1, i64 noundef %2) #1 !dbg !1914 {
  %4 = alloca i32, align 4
  %5 = alloca ptr, align 8
  %6 = alloca i64, align 8
  %7 = alloca i64, align 8
  %8 = alloca ptr, align 8
  %9 = alloca i64, align 8
  %10 = alloca i64, align 8
  %11 = alloca i64, align 8
  %12 = alloca i64, align 8
  store ptr %0, ptr %5, align 8
    #dbg_declare(ptr %5, !1917, !DIExpression(), !1918)
  store i64 %1, ptr %6, align 8
    #dbg_declare(ptr %6, !1919, !DIExpression(), !1920)
  store i64 %2, ptr %7, align 8
    #dbg_declare(ptr %7, !1921, !DIExpression(), !1922)
  %13 = load ptr, ptr %5, align 8, !dbg !1923
  %14 = getelementptr inbounds nuw %struct.DenseMatrix, ptr %13, i32 0, i32 3, !dbg !1925
  %15 = load i8, ptr %14, align 8, !dbg !1925
  %16 = trunc i8 %15 to i1, !dbg !1925
  br i1 %16, label %18, label %17, !dbg !1926

17:                                               ; preds = %3
  store i32 -1, ptr %4, align 4, !dbg !1927
  br label %84, !dbg !1927

18:                                               ; preds = %3
    #dbg_declare(ptr %8, !1929, !DIExpression(), !1930)
  %19 = load i64, ptr %6, align 8, !dbg !1931
  %20 = load i64, ptr %7, align 8, !dbg !1932
  %21 = mul i64 %19, %20, !dbg !1933
  %22 = call noalias ptr @calloc(i64 noundef %21, i64 noundef 8) #12, !dbg !1934
  store ptr %22, ptr %8, align 8, !dbg !1930
  %23 = load ptr, ptr %8, align 8, !dbg !1935
  %24 = icmp ne ptr %23, null, !dbg !1935
  br i1 %24, label %26, label %25, !dbg !1937

25:                                               ; preds = %18
  store i32 -4, ptr %4, align 4, !dbg !1938
  br label %84, !dbg !1938

26:                                               ; preds = %18
    #dbg_declare(ptr %9, !1940, !DIExpression(), !1941)
  %27 = load ptr, ptr %5, align 8, !dbg !1942
  %28 = getelementptr inbounds nuw %struct.DenseMatrix, ptr %27, i32 0, i32 1, !dbg !1943
  %29 = call noundef nonnull align 8 dereferenceable(8) ptr @_ZSt3minImERKT_S2_S2_(ptr noundef nonnull align 8 dereferenceable(8) %28, ptr noundef nonnull align 8 dereferenceable(8) %6), !dbg !1944
  %30 = load i64, ptr %29, align 8, !dbg !1944
  store i64 %30, ptr %9, align 8, !dbg !1941
    #dbg_declare(ptr %10, !1945, !DIExpression(), !1946)
  %31 = load ptr, ptr %5, align 8, !dbg !1947
  %32 = getelementptr inbounds nuw %struct.DenseMatrix, ptr %31, i32 0, i32 2, !dbg !1948
  %33 = call noundef nonnull align 8 dereferenceable(8) ptr @_ZSt3minImERKT_S2_S2_(ptr noundef nonnull align 8 dereferenceable(8) %32, ptr noundef nonnull align 8 dereferenceable(8) %7), !dbg !1949
  %34 = load i64, ptr %33, align 8, !dbg !1949
  store i64 %34, ptr %10, align 8, !dbg !1946
    #dbg_declare(ptr %11, !1950, !DIExpression(), !1952)
  store i64 0, ptr %11, align 8, !dbg !1952
  br label %35, !dbg !1953

35:                                               ; preds = %68, %26
  %36 = load i64, ptr %11, align 8, !dbg !1954
  %37 = load i64, ptr %9, align 8, !dbg !1956
  %38 = icmp ult i64 %36, %37, !dbg !1957
  br i1 %38, label %39, label %71, !dbg !1958

39:                                               ; preds = %35
    #dbg_declare(ptr %12, !1959, !DIExpression(), !1962)
  store i64 0, ptr %12, align 8, !dbg !1962
  br label %40, !dbg !1963

40:                                               ; preds = %64, %39
  %41 = load i64, ptr %12, align 8, !dbg !1964
  %42 = load i64, ptr %10, align 8, !dbg !1966
  %43 = icmp ult i64 %41, %42, !dbg !1967
  br i1 %43, label %44, label %67, !dbg !1968

44:                                               ; preds = %40
  %45 = load ptr, ptr %5, align 8, !dbg !1969
  %46 = getelementptr inbounds nuw %struct.DenseMatrix, ptr %45, i32 0, i32 0, !dbg !1971
  %47 = load ptr, ptr %46, align 8, !dbg !1971
  %48 = load i64, ptr %11, align 8, !dbg !1972
  %49 = load ptr, ptr %5, align 8, !dbg !1973
  %50 = getelementptr inbounds nuw %struct.DenseMatrix, ptr %49, i32 0, i32 2, !dbg !1974
  %51 = load i64, ptr %50, align 8, !dbg !1974
  %52 = mul i64 %48, %51, !dbg !1975
  %53 = load i64, ptr %12, align 8, !dbg !1976
  %54 = add i64 %52, %53, !dbg !1977
  %55 = getelementptr inbounds nuw double, ptr %47, i64 %54, !dbg !1969
  %56 = load double, ptr %55, align 8, !dbg !1969
  %57 = load ptr, ptr %8, align 8, !dbg !1978
  %58 = load i64, ptr %11, align 8, !dbg !1979
  %59 = load i64, ptr %7, align 8, !dbg !1980
  %60 = mul i64 %58, %59, !dbg !1981
  %61 = load i64, ptr %12, align 8, !dbg !1982
  %62 = add i64 %60, %61, !dbg !1983
  %63 = getelementptr inbounds nuw double, ptr %57, i64 %62, !dbg !1978
  store double %56, ptr %63, align 8, !dbg !1984
  br label %64, !dbg !1985

64:                                               ; preds = %44
  %65 = load i64, ptr %12, align 8, !dbg !1986
  %66 = add i64 %65, 1, !dbg !1986
  store i64 %66, ptr %12, align 8, !dbg !1986
  br label %40, !dbg !1987, !llvm.loop !1988

67:                                               ; preds = %40
  br label %68, !dbg !1990

68:                                               ; preds = %67
  %69 = load i64, ptr %11, align 8, !dbg !1991
  %70 = add i64 %69, 1, !dbg !1991
  store i64 %70, ptr %11, align 8, !dbg !1991
  br label %35, !dbg !1992, !llvm.loop !1993

71:                                               ; preds = %35
  %72 = load ptr, ptr %5, align 8, !dbg !1995
  %73 = getelementptr inbounds nuw %struct.DenseMatrix, ptr %72, i32 0, i32 0, !dbg !1996
  %74 = load ptr, ptr %73, align 8, !dbg !1996
  call void @free(ptr noundef %74) #13, !dbg !1997
  %75 = load ptr, ptr %8, align 8, !dbg !1998
  %76 = load ptr, ptr %5, align 8, !dbg !1999
  %77 = getelementptr inbounds nuw %struct.DenseMatrix, ptr %76, i32 0, i32 0, !dbg !2000
  store ptr %75, ptr %77, align 8, !dbg !2001
  %78 = load i64, ptr %6, align 8, !dbg !2002
  %79 = load ptr, ptr %5, align 8, !dbg !2003
  %80 = getelementptr inbounds nuw %struct.DenseMatrix, ptr %79, i32 0, i32 1, !dbg !2004
  store i64 %78, ptr %80, align 8, !dbg !2005
  %81 = load i64, ptr %7, align 8, !dbg !2006
  %82 = load ptr, ptr %5, align 8, !dbg !2007
  %83 = getelementptr inbounds nuw %struct.DenseMatrix, ptr %82, i32 0, i32 2, !dbg !2008
  store i64 %81, ptr %83, align 8, !dbg !2009
  store i32 0, ptr %4, align 4, !dbg !2010
  br label %84, !dbg !2010

84:                                               ; preds = %71, %25, %17
  %85 = load i32, ptr %4, align 4, !dbg !2011
  ret i32 %85, !dbg !2011
}

; Function Attrs: mustprogress noinline nounwind optnone sspstrong uwtable
define void @sparse_matrix_create(ptr dead_on_unwind noalias writable sret(%struct.SparseMatrix) align 8 %0, i64 noundef %1, i64 noundef %2, i64 noundef %3) #2 !dbg !2012 {
  %5 = alloca i64, align 8
  %6 = alloca i64, align 8
  %7 = alloca i64, align 8
  store i64 %1, ptr %5, align 8
    #dbg_declare(ptr %5, !2023, !DIExpression(), !2024)
  store i64 %2, ptr %6, align 8
    #dbg_declare(ptr %6, !2025, !DIExpression(), !2026)
  store i64 %3, ptr %7, align 8
    #dbg_declare(ptr %7, !2027, !DIExpression(), !2028)
    #dbg_declare(ptr %0, !2029, !DIExpression(), !2030)
  %8 = load i64, ptr %5, align 8, !dbg !2031
  %9 = getelementptr inbounds nuw %struct.SparseMatrix, ptr %0, i32 0, i32 4, !dbg !2032
  store i64 %8, ptr %9, align 8, !dbg !2033
  %10 = load i64, ptr %6, align 8, !dbg !2034
  %11 = getelementptr inbounds nuw %struct.SparseMatrix, ptr %0, i32 0, i32 5, !dbg !2035
  store i64 %10, ptr %11, align 8, !dbg !2036
  %12 = load i64, ptr %7, align 8, !dbg !2037
  %13 = getelementptr inbounds nuw %struct.SparseMatrix, ptr %0, i32 0, i32 3, !dbg !2038
  store i64 %12, ptr %13, align 8, !dbg !2039
  %14 = load i64, ptr %7, align 8, !dbg !2040
  %15 = call noalias ptr @calloc(i64 noundef %14, i64 noundef 8) #12, !dbg !2041
  %16 = getelementptr inbounds nuw %struct.SparseMatrix, ptr %0, i32 0, i32 0, !dbg !2042
  store ptr %15, ptr %16, align 8, !dbg !2043
  %17 = load i64, ptr %7, align 8, !dbg !2044
  %18 = call noalias ptr @calloc(i64 noundef %17, i64 noundef 4) #12, !dbg !2045
  %19 = getelementptr inbounds nuw %struct.SparseMatrix, ptr %0, i32 0, i32 1, !dbg !2046
  store ptr %18, ptr %19, align 8, !dbg !2047
  %20 = load i64, ptr %6, align 8, !dbg !2048
  %21 = add i64 %20, 1, !dbg !2049
  %22 = call noalias ptr @calloc(i64 noundef %21, i64 noundef 4) #12, !dbg !2050
  %23 = getelementptr inbounds nuw %struct.SparseMatrix, ptr %0, i32 0, i32 2, !dbg !2051
  store ptr %22, ptr %23, align 8, !dbg !2052
  ret void, !dbg !2053
}

; Function Attrs: mustprogress noinline nounwind optnone sspstrong uwtable
define void @sparse_matrix_destroy(ptr noundef %0) #2 !dbg !2054 {
  %2 = alloca ptr, align 8
  store ptr %0, ptr %2, align 8
    #dbg_declare(ptr %2, !2058, !DIExpression(), !2059)
  %3 = load ptr, ptr %2, align 8, !dbg !2060
  %4 = icmp ne ptr %3, null, !dbg !2060
  br i1 %4, label %5, label %15, !dbg !2060

5:                                                ; preds = %1
  %6 = load ptr, ptr %2, align 8, !dbg !2062
  %7 = getelementptr inbounds nuw %struct.SparseMatrix, ptr %6, i32 0, i32 0, !dbg !2064
  %8 = load ptr, ptr %7, align 8, !dbg !2064
  call void @free(ptr noundef %8) #13, !dbg !2065
  %9 = load ptr, ptr %2, align 8, !dbg !2066
  %10 = getelementptr inbounds nuw %struct.SparseMatrix, ptr %9, i32 0, i32 1, !dbg !2067
  %11 = load ptr, ptr %10, align 8, !dbg !2067
  call void @free(ptr noundef %11) #13, !dbg !2068
  %12 = load ptr, ptr %2, align 8, !dbg !2069
  %13 = getelementptr inbounds nuw %struct.SparseMatrix, ptr %12, i32 0, i32 2, !dbg !2070
  %14 = load ptr, ptr %13, align 8, !dbg !2070
  call void @free(ptr noundef %14) #13, !dbg !2071
  br label %15, !dbg !2072

15:                                               ; preds = %5, %1
  ret void, !dbg !2073
}

; Function Attrs: mustprogress noinline nounwind optnone sspstrong uwtable
define double @vector_dot(ptr noundef %0, ptr noundef %1, i64 noundef %2) #2 !dbg !2074 {
  %4 = alloca ptr, align 8
  %5 = alloca ptr, align 8
  %6 = alloca i64, align 8
  %7 = alloca double, align 8
  %8 = alloca i64, align 8
  store ptr %0, ptr %4, align 8
    #dbg_declare(ptr %4, !2077, !DIExpression(), !2078)
  store ptr %1, ptr %5, align 8
    #dbg_declare(ptr %5, !2079, !DIExpression(), !2080)
  store i64 %2, ptr %6, align 8
    #dbg_declare(ptr %6, !2081, !DIExpression(), !2082)
    #dbg_declare(ptr %7, !2083, !DIExpression(), !2084)
  store double 0.000000e+00, ptr %7, align 8, !dbg !2084
    #dbg_declare(ptr %8, !2085, !DIExpression(), !2087)
  store i64 0, ptr %8, align 8, !dbg !2087
  br label %9, !dbg !2088

9:                                                ; preds = %24, %3
  %10 = load i64, ptr %8, align 8, !dbg !2089
  %11 = load i64, ptr %6, align 8, !dbg !2091
  %12 = icmp ult i64 %10, %11, !dbg !2092
  br i1 %12, label %13, label %27, !dbg !2093

13:                                               ; preds = %9
  %14 = load ptr, ptr %4, align 8, !dbg !2094
  %15 = load i64, ptr %8, align 8, !dbg !2096
  %16 = getelementptr inbounds nuw double, ptr %14, i64 %15, !dbg !2094
  %17 = load double, ptr %16, align 8, !dbg !2094
  %18 = load ptr, ptr %5, align 8, !dbg !2097
  %19 = load i64, ptr %8, align 8, !dbg !2098
  %20 = getelementptr inbounds nuw double, ptr %18, i64 %19, !dbg !2097
  %21 = load double, ptr %20, align 8, !dbg !2097
  %22 = load double, ptr %7, align 8, !dbg !2099
  %23 = call double @llvm.fmuladd.f64(double %17, double %21, double %22), !dbg !2099
  store double %23, ptr %7, align 8, !dbg !2099
  br label %24, !dbg !2100

24:                                               ; preds = %13
  %25 = load i64, ptr %8, align 8, !dbg !2101
  %26 = add i64 %25, 1, !dbg !2101
  store i64 %26, ptr %8, align 8, !dbg !2101
  br label %9, !dbg !2102, !llvm.loop !2103

27:                                               ; preds = %9
  %28 = load double, ptr %7, align 8, !dbg !2105
  ret double %28, !dbg !2106
}

; Function Attrs: nocallback nofree nosync nounwind speculatable willreturn memory(none)
declare double @llvm.fmuladd.f64(double, double, double) #7

; Function Attrs: mustprogress noinline nounwind optnone sspstrong uwtable
define double @vector_norm(ptr noundef %0, i64 noundef %1) #2 !dbg !2107 {
  %3 = alloca ptr, align 8
  %4 = alloca i64, align 8
  store ptr %0, ptr %3, align 8
    #dbg_declare(ptr %3, !2110, !DIExpression(), !2111)
  store i64 %1, ptr %4, align 8
    #dbg_declare(ptr %4, !2112, !DIExpression(), !2113)
  %5 = load ptr, ptr %3, align 8, !dbg !2114
  %6 = load ptr, ptr %3, align 8, !dbg !2115
  %7 = load i64, ptr %4, align 8, !dbg !2116
  %8 = call double @vector_dot(ptr noundef %5, ptr noundef %6, i64 noundef %7), !dbg !2117
  %9 = call double @sqrt(double noundef %8) #13, !dbg !2118
  ret double %9, !dbg !2119
}

; Function Attrs: nounwind
declare double @sqrt(double noundef) #4

; Function Attrs: mustprogress noinline nounwind optnone sspstrong uwtable
define void @vector_scale(ptr noundef %0, double noundef %1, i64 noundef %2) #2 !dbg !2120 {
  %4 = alloca ptr, align 8
  %5 = alloca double, align 8
  %6 = alloca i64, align 8
  %7 = alloca i64, align 8
  store ptr %0, ptr %4, align 8
    #dbg_declare(ptr %4, !2123, !DIExpression(), !2124)
  store double %1, ptr %5, align 8
    #dbg_declare(ptr %5, !2125, !DIExpression(), !2126)
  store i64 %2, ptr %6, align 8
    #dbg_declare(ptr %6, !2127, !DIExpression(), !2128)
    #dbg_declare(ptr %7, !2129, !DIExpression(), !2131)
  store i64 0, ptr %7, align 8, !dbg !2131
  br label %8, !dbg !2132

8:                                                ; preds = %19, %3
  %9 = load i64, ptr %7, align 8, !dbg !2133
  %10 = load i64, ptr %6, align 8, !dbg !2135
  %11 = icmp ult i64 %9, %10, !dbg !2136
  br i1 %11, label %12, label %22, !dbg !2137

12:                                               ; preds = %8
  %13 = load double, ptr %5, align 8, !dbg !2138
  %14 = load ptr, ptr %4, align 8, !dbg !2140
  %15 = load i64, ptr %7, align 8, !dbg !2141
  %16 = getelementptr inbounds nuw double, ptr %14, i64 %15, !dbg !2140
  %17 = load double, ptr %16, align 8, !dbg !2142
  %18 = fmul double %17, %13, !dbg !2142
  store double %18, ptr %16, align 8, !dbg !2142
  br label %19, !dbg !2143

19:                                               ; preds = %12
  %20 = load i64, ptr %7, align 8, !dbg !2144
  %21 = add i64 %20, 1, !dbg !2144
  store i64 %21, ptr %7, align 8, !dbg !2144
  br label %8, !dbg !2145, !llvm.loop !2146

22:                                               ; preds = %8
  ret void, !dbg !2148
}

; Function Attrs: mustprogress noinline nounwind optnone sspstrong uwtable
define void @vector_axpy(ptr noundef %0, double noundef %1, ptr noundef %2, i64 noundef %3) #2 !dbg !2149 {
  %5 = alloca ptr, align 8
  %6 = alloca double, align 8
  %7 = alloca ptr, align 8
  %8 = alloca i64, align 8
  %9 = alloca i64, align 8
  store ptr %0, ptr %5, align 8
    #dbg_declare(ptr %5, !2152, !DIExpression(), !2153)
  store double %1, ptr %6, align 8
    #dbg_declare(ptr %6, !2154, !DIExpression(), !2155)
  store ptr %2, ptr %7, align 8
    #dbg_declare(ptr %7, !2156, !DIExpression(), !2157)
  store i64 %3, ptr %8, align 8
    #dbg_declare(ptr %8, !2158, !DIExpression(), !2159)
    #dbg_declare(ptr %9, !2160, !DIExpression(), !2162)
  store i64 0, ptr %9, align 8, !dbg !2162
  br label %10, !dbg !2163

10:                                               ; preds = %25, %4
  %11 = load i64, ptr %9, align 8, !dbg !2164
  %12 = load i64, ptr %8, align 8, !dbg !2166
  %13 = icmp ult i64 %11, %12, !dbg !2167
  br i1 %13, label %14, label %28, !dbg !2168

14:                                               ; preds = %10
  %15 = load double, ptr %6, align 8, !dbg !2169
  %16 = load ptr, ptr %7, align 8, !dbg !2171
  %17 = load i64, ptr %9, align 8, !dbg !2172
  %18 = getelementptr inbounds nuw double, ptr %16, i64 %17, !dbg !2171
  %19 = load double, ptr %18, align 8, !dbg !2171
  %20 = load ptr, ptr %5, align 8, !dbg !2173
  %21 = load i64, ptr %9, align 8, !dbg !2174
  %22 = getelementptr inbounds nuw double, ptr %20, i64 %21, !dbg !2173
  %23 = load double, ptr %22, align 8, !dbg !2175
  %24 = call double @llvm.fmuladd.f64(double %15, double %19, double %23), !dbg !2175
  store double %24, ptr %22, align 8, !dbg !2175
  br label %25, !dbg !2176

25:                                               ; preds = %14
  %26 = load i64, ptr %9, align 8, !dbg !2177
  %27 = add i64 %26, 1, !dbg !2177
  store i64 %27, ptr %9, align 8, !dbg !2177
  br label %10, !dbg !2178, !llvm.loop !2179

28:                                               ; preds = %10
  ret void, !dbg !2181
}

; Function Attrs: mustprogress noinline nounwind optnone sspstrong uwtable
define void @vector_copy(ptr noundef %0, ptr noundef %1, i64 noundef %2) #2 !dbg !2182 {
  %4 = alloca ptr, align 8
  %5 = alloca ptr, align 8
  %6 = alloca i64, align 8
  store ptr %0, ptr %4, align 8
    #dbg_declare(ptr %4, !2185, !DIExpression(), !2186)
  store ptr %1, ptr %5, align 8
    #dbg_declare(ptr %5, !2187, !DIExpression(), !2188)
  store i64 %2, ptr %6, align 8
    #dbg_declare(ptr %6, !2189, !DIExpression(), !2190)
  %7 = load ptr, ptr %4, align 8, !dbg !2191
  %8 = load ptr, ptr %5, align 8, !dbg !2192
  %9 = load i64, ptr %6, align 8, !dbg !2193
  %10 = mul i64 %9, 8, !dbg !2194
  call void @llvm.memcpy.p0.p0.i64(ptr align 8 %7, ptr align 8 %8, i64 %10, i1 false), !dbg !2195
  ret void, !dbg !2196
}

; Function Attrs: mustprogress noinline nounwind optnone sspstrong uwtable
define void @matrix_vector_mult(ptr noundef %0, ptr noundef %1, ptr noundef %2) #2 !dbg !2197 {
  %4 = alloca ptr, align 8
  %5 = alloca ptr, align 8
  %6 = alloca ptr, align 8
  %7 = alloca i64, align 8
  %8 = alloca i64, align 8
  store ptr %0, ptr %4, align 8
    #dbg_declare(ptr %4, !2200, !DIExpression(), !2201)
  store ptr %1, ptr %5, align 8
    #dbg_declare(ptr %5, !2202, !DIExpression(), !2203)
  store ptr %2, ptr %6, align 8
    #dbg_declare(ptr %6, !2204, !DIExpression(), !2205)
    #dbg_declare(ptr %7, !2206, !DIExpression(), !2208)
  store i64 0, ptr %7, align 8, !dbg !2208
  br label %9, !dbg !2209

9:                                                ; preds = %51, %3
  %10 = load i64, ptr %7, align 8, !dbg !2210
  %11 = load ptr, ptr %4, align 8, !dbg !2212
  %12 = getelementptr inbounds nuw %struct.DenseMatrix, ptr %11, i32 0, i32 1, !dbg !2213
  %13 = load i64, ptr %12, align 8, !dbg !2213
  %14 = icmp ult i64 %10, %13, !dbg !2214
  br i1 %14, label %15, label %54, !dbg !2215

15:                                               ; preds = %9
  %16 = load ptr, ptr %6, align 8, !dbg !2216
  %17 = load i64, ptr %7, align 8, !dbg !2218
  %18 = getelementptr inbounds nuw double, ptr %16, i64 %17, !dbg !2216
  store double 0.000000e+00, ptr %18, align 8, !dbg !2219
    #dbg_declare(ptr %8, !2220, !DIExpression(), !2222)
  store i64 0, ptr %8, align 8, !dbg !2222
  br label %19, !dbg !2223

19:                                               ; preds = %47, %15
  %20 = load i64, ptr %8, align 8, !dbg !2224
  %21 = load ptr, ptr %4, align 8, !dbg !2226
  %22 = getelementptr inbounds nuw %struct.DenseMatrix, ptr %21, i32 0, i32 2, !dbg !2227
  %23 = load i64, ptr %22, align 8, !dbg !2227
  %24 = icmp ult i64 %20, %23, !dbg !2228
  br i1 %24, label %25, label %50, !dbg !2229

25:                                               ; preds = %19
  %26 = load ptr, ptr %4, align 8, !dbg !2230
  %27 = getelementptr inbounds nuw %struct.DenseMatrix, ptr %26, i32 0, i32 0, !dbg !2232
  %28 = load ptr, ptr %27, align 8, !dbg !2232
  %29 = load i64, ptr %7, align 8, !dbg !2233
  %30 = load ptr, ptr %4, align 8, !dbg !2234
  %31 = getelementptr inbounds nuw %struct.DenseMatrix, ptr %30, i32 0, i32 2, !dbg !2235
  %32 = load i64, ptr %31, align 8, !dbg !2235
  %33 = mul i64 %29, %32, !dbg !2236
  %34 = load i64, ptr %8, align 8, !dbg !2237
  %35 = add i64 %33, %34, !dbg !2238
  %36 = getelementptr inbounds nuw double, ptr %28, i64 %35, !dbg !2230
  %37 = load double, ptr %36, align 8, !dbg !2230
  %38 = load ptr, ptr %5, align 8, !dbg !2239
  %39 = load i64, ptr %8, align 8, !dbg !2240
  %40 = getelementptr inbounds nuw double, ptr %38, i64 %39, !dbg !2239
  %41 = load double, ptr %40, align 8, !dbg !2239
  %42 = load ptr, ptr %6, align 8, !dbg !2241
  %43 = load i64, ptr %7, align 8, !dbg !2242
  %44 = getelementptr inbounds nuw double, ptr %42, i64 %43, !dbg !2241
  %45 = load double, ptr %44, align 8, !dbg !2243
  %46 = call double @llvm.fmuladd.f64(double %37, double %41, double %45), !dbg !2243
  store double %46, ptr %44, align 8, !dbg !2243
  br label %47, !dbg !2244

47:                                               ; preds = %25
  %48 = load i64, ptr %8, align 8, !dbg !2245
  %49 = add i64 %48, 1, !dbg !2245
  store i64 %49, ptr %8, align 8, !dbg !2245
  br label %19, !dbg !2246, !llvm.loop !2247

50:                                               ; preds = %19
  br label %51, !dbg !2249

51:                                               ; preds = %50
  %52 = load i64, ptr %7, align 8, !dbg !2250
  %53 = add i64 %52, 1, !dbg !2250
  store i64 %53, ptr %7, align 8, !dbg !2250
  br label %9, !dbg !2251, !llvm.loop !2252

54:                                               ; preds = %9
  ret void, !dbg !2254
}

; Function Attrs: mustprogress noinline nounwind optnone sspstrong uwtable
define void @matrix_vector_mult_add(ptr noundef %0, ptr noundef %1, ptr noundef %2, double noundef %3, double noundef %4) #2 !dbg !2255 {
  %6 = alloca ptr, align 8
  %7 = alloca ptr, align 8
  %8 = alloca ptr, align 8
  %9 = alloca double, align 8
  %10 = alloca double, align 8
  %11 = alloca ptr, align 8
  %12 = alloca i64, align 8
  store ptr %0, ptr %6, align 8
    #dbg_declare(ptr %6, !2258, !DIExpression(), !2259)
  store ptr %1, ptr %7, align 8
    #dbg_declare(ptr %7, !2260, !DIExpression(), !2261)
  store ptr %2, ptr %8, align 8
    #dbg_declare(ptr %8, !2262, !DIExpression(), !2263)
  store double %3, ptr %9, align 8
    #dbg_declare(ptr %9, !2264, !DIExpression(), !2265)
  store double %4, ptr %10, align 8
    #dbg_declare(ptr %10, !2266, !DIExpression(), !2267)
    #dbg_declare(ptr %11, !2268, !DIExpression(), !2269)
  %13 = load ptr, ptr %6, align 8, !dbg !2270
  %14 = getelementptr inbounds nuw %struct.DenseMatrix, ptr %13, i32 0, i32 1, !dbg !2271
  %15 = load i64, ptr %14, align 8, !dbg !2271
  %16 = mul i64 %15, 8, !dbg !2272
  %17 = call noalias ptr @malloc(i64 noundef %16) #14, !dbg !2273
  store ptr %17, ptr %11, align 8, !dbg !2269
  %18 = load ptr, ptr %6, align 8, !dbg !2274
  %19 = load ptr, ptr %7, align 8, !dbg !2275
  %20 = load ptr, ptr %11, align 8, !dbg !2276
  call void @matrix_vector_mult(ptr noundef %18, ptr noundef %19, ptr noundef %20), !dbg !2277
    #dbg_declare(ptr %12, !2278, !DIExpression(), !2280)
  store i64 0, ptr %12, align 8, !dbg !2280
  br label %21, !dbg !2281

21:                                               ; preds = %43, %5
  %22 = load i64, ptr %12, align 8, !dbg !2282
  %23 = load ptr, ptr %6, align 8, !dbg !2284
  %24 = getelementptr inbounds nuw %struct.DenseMatrix, ptr %23, i32 0, i32 1, !dbg !2285
  %25 = load i64, ptr %24, align 8, !dbg !2285
  %26 = icmp ult i64 %22, %25, !dbg !2286
  br i1 %26, label %27, label %46, !dbg !2287

27:                                               ; preds = %21
  %28 = load double, ptr %9, align 8, !dbg !2288
  %29 = load ptr, ptr %11, align 8, !dbg !2290
  %30 = load i64, ptr %12, align 8, !dbg !2291
  %31 = getelementptr inbounds nuw double, ptr %29, i64 %30, !dbg !2290
  %32 = load double, ptr %31, align 8, !dbg !2290
  %33 = load double, ptr %10, align 8, !dbg !2292
  %34 = load ptr, ptr %8, align 8, !dbg !2293
  %35 = load i64, ptr %12, align 8, !dbg !2294
  %36 = getelementptr inbounds nuw double, ptr %34, i64 %35, !dbg !2293
  %37 = load double, ptr %36, align 8, !dbg !2293
  %38 = fmul double %33, %37, !dbg !2295
  %39 = call double @llvm.fmuladd.f64(double %28, double %32, double %38), !dbg !2296
  %40 = load ptr, ptr %8, align 8, !dbg !2297
  %41 = load i64, ptr %12, align 8, !dbg !2298
  %42 = getelementptr inbounds nuw double, ptr %40, i64 %41, !dbg !2297
  store double %39, ptr %42, align 8, !dbg !2299
  br label %43, !dbg !2300

43:                                               ; preds = %27
  %44 = load i64, ptr %12, align 8, !dbg !2301
  %45 = add i64 %44, 1, !dbg !2301
  store i64 %45, ptr %12, align 8, !dbg !2301
  br label %21, !dbg !2302, !llvm.loop !2303

46:                                               ; preds = %21
  %47 = load ptr, ptr %11, align 8, !dbg !2305
  call void @free(ptr noundef %47) #13, !dbg !2306
  ret void, !dbg !2307
}

; Function Attrs: nounwind allocsize(0)
declare noalias ptr @malloc(i64 noundef) #8

; Function Attrs: mustprogress noinline nounwind optnone sspstrong uwtable
define void @matrix_multiply(ptr dead_on_unwind noalias writable sret(%struct.DenseMatrix) align 8 %0, ptr noundef %1, ptr noundef %2) #2 !dbg !2308 {
  %4 = alloca ptr, align 8
  %5 = alloca ptr, align 8
  %6 = alloca i64, align 8
  %7 = alloca i64, align 8
  %8 = alloca i64, align 8
  store ptr %1, ptr %4, align 8
    #dbg_declare(ptr %4, !2311, !DIExpression(), !2312)
  store ptr %2, ptr %5, align 8
    #dbg_declare(ptr %5, !2313, !DIExpression(), !2314)
    #dbg_declare(ptr %0, !2315, !DIExpression(), !2316)
  %9 = load ptr, ptr %4, align 8, !dbg !2317
  %10 = getelementptr inbounds nuw %struct.DenseMatrix, ptr %9, i32 0, i32 1, !dbg !2318
  %11 = load i64, ptr %10, align 8, !dbg !2318
  %12 = load ptr, ptr %5, align 8, !dbg !2319
  %13 = getelementptr inbounds nuw %struct.DenseMatrix, ptr %12, i32 0, i32 2, !dbg !2320
  %14 = load i64, ptr %13, align 8, !dbg !2320
  call void @dense_matrix_create(ptr dead_on_unwind writable sret(%struct.DenseMatrix) align 8 %0, i64 noundef %11, i64 noundef %14), !dbg !2321
    #dbg_declare(ptr %6, !2322, !DIExpression(), !2324)
  store i64 0, ptr %6, align 8, !dbg !2324
  br label %15, !dbg !2325

15:                                               ; preds = %88, %3
  %16 = load i64, ptr %6, align 8, !dbg !2326
  %17 = load ptr, ptr %4, align 8, !dbg !2328
  %18 = getelementptr inbounds nuw %struct.DenseMatrix, ptr %17, i32 0, i32 1, !dbg !2329
  %19 = load i64, ptr %18, align 8, !dbg !2329
  %20 = icmp ult i64 %16, %19, !dbg !2330
  br i1 %20, label %21, label %91, !dbg !2331

21:                                               ; preds = %15
    #dbg_declare(ptr %7, !2332, !DIExpression(), !2335)
  store i64 0, ptr %7, align 8, !dbg !2335
  br label %22, !dbg !2336

22:                                               ; preds = %84, %21
  %23 = load i64, ptr %7, align 8, !dbg !2337
  %24 = load ptr, ptr %5, align 8, !dbg !2339
  %25 = getelementptr inbounds nuw %struct.DenseMatrix, ptr %24, i32 0, i32 2, !dbg !2340
  %26 = load i64, ptr %25, align 8, !dbg !2340
  %27 = icmp ult i64 %23, %26, !dbg !2341
  br i1 %27, label %28, label %87, !dbg !2342

28:                                               ; preds = %22
  %29 = getelementptr inbounds nuw %struct.DenseMatrix, ptr %0, i32 0, i32 0, !dbg !2343
  %30 = load ptr, ptr %29, align 8, !dbg !2343
  %31 = load i64, ptr %6, align 8, !dbg !2345
  %32 = getelementptr inbounds nuw %struct.DenseMatrix, ptr %0, i32 0, i32 2, !dbg !2346
  %33 = load i64, ptr %32, align 8, !dbg !2346
  %34 = mul i64 %31, %33, !dbg !2347
  %35 = load i64, ptr %7, align 8, !dbg !2348
  %36 = add i64 %34, %35, !dbg !2349
  %37 = getelementptr inbounds nuw double, ptr %30, i64 %36, !dbg !2350
  store double 0.000000e+00, ptr %37, align 8, !dbg !2351
    #dbg_declare(ptr %8, !2352, !DIExpression(), !2354)
  store i64 0, ptr %8, align 8, !dbg !2354
  br label %38, !dbg !2355

38:                                               ; preds = %80, %28
  %39 = load i64, ptr %8, align 8, !dbg !2356
  %40 = load ptr, ptr %4, align 8, !dbg !2358
  %41 = getelementptr inbounds nuw %struct.DenseMatrix, ptr %40, i32 0, i32 2, !dbg !2359
  %42 = load i64, ptr %41, align 8, !dbg !2359
  %43 = icmp ult i64 %39, %42, !dbg !2360
  br i1 %43, label %44, label %83, !dbg !2361

44:                                               ; preds = %38
  %45 = load ptr, ptr %4, align 8, !dbg !2362
  %46 = getelementptr inbounds nuw %struct.DenseMatrix, ptr %45, i32 0, i32 0, !dbg !2364
  %47 = load ptr, ptr %46, align 8, !dbg !2364
  %48 = load i64, ptr %6, align 8, !dbg !2365
  %49 = load ptr, ptr %4, align 8, !dbg !2366
  %50 = getelementptr inbounds nuw %struct.DenseMatrix, ptr %49, i32 0, i32 2, !dbg !2367
  %51 = load i64, ptr %50, align 8, !dbg !2367
  %52 = mul i64 %48, %51, !dbg !2368
  %53 = load i64, ptr %8, align 8, !dbg !2369
  %54 = add i64 %52, %53, !dbg !2370
  %55 = getelementptr inbounds nuw double, ptr %47, i64 %54, !dbg !2362
  %56 = load double, ptr %55, align 8, !dbg !2362
  %57 = load ptr, ptr %5, align 8, !dbg !2371
  %58 = getelementptr inbounds nuw %struct.DenseMatrix, ptr %57, i32 0, i32 0, !dbg !2372
  %59 = load ptr, ptr %58, align 8, !dbg !2372
  %60 = load i64, ptr %8, align 8, !dbg !2373
  %61 = load ptr, ptr %5, align 8, !dbg !2374
  %62 = getelementptr inbounds nuw %struct.DenseMatrix, ptr %61, i32 0, i32 2, !dbg !2375
  %63 = load i64, ptr %62, align 8, !dbg !2375
  %64 = mul i64 %60, %63, !dbg !2376
  %65 = load i64, ptr %7, align 8, !dbg !2377
  %66 = add i64 %64, %65, !dbg !2378
  %67 = getelementptr inbounds nuw double, ptr %59, i64 %66, !dbg !2371
  %68 = load double, ptr %67, align 8, !dbg !2371
  %69 = getelementptr inbounds nuw %struct.DenseMatrix, ptr %0, i32 0, i32 0, !dbg !2379
  %70 = load ptr, ptr %69, align 8, !dbg !2379
  %71 = load i64, ptr %6, align 8, !dbg !2380
  %72 = getelementptr inbounds nuw %struct.DenseMatrix, ptr %0, i32 0, i32 2, !dbg !2381
  %73 = load i64, ptr %72, align 8, !dbg !2381
  %74 = mul i64 %71, %73, !dbg !2382
  %75 = load i64, ptr %7, align 8, !dbg !2383
  %76 = add i64 %74, %75, !dbg !2384
  %77 = getelementptr inbounds nuw double, ptr %70, i64 %76, !dbg !2385
  %78 = load double, ptr %77, align 8, !dbg !2386
  %79 = call double @llvm.fmuladd.f64(double %56, double %68, double %78), !dbg !2386
  store double %79, ptr %77, align 8, !dbg !2386
  br label %80, !dbg !2387

80:                                               ; preds = %44
  %81 = load i64, ptr %8, align 8, !dbg !2388
  %82 = add i64 %81, 1, !dbg !2388
  store i64 %82, ptr %8, align 8, !dbg !2388
  br label %38, !dbg !2389, !llvm.loop !2390

83:                                               ; preds = %38
  br label %84, !dbg !2392

84:                                               ; preds = %83
  %85 = load i64, ptr %7, align 8, !dbg !2393
  %86 = add i64 %85, 1, !dbg !2393
  store i64 %86, ptr %7, align 8, !dbg !2393
  br label %22, !dbg !2394, !llvm.loop !2395

87:                                               ; preds = %22
  br label %88, !dbg !2397

88:                                               ; preds = %87
  %89 = load i64, ptr %6, align 8, !dbg !2398
  %90 = add i64 %89, 1, !dbg !2398
  store i64 %90, ptr %6, align 8, !dbg !2398
  br label %15, !dbg !2399, !llvm.loop !2400

91:                                               ; preds = %15
  ret void, !dbg !2402
}

; Function Attrs: mustprogress noinline nounwind optnone sspstrong uwtable
define void @matrix_add(ptr dead_on_unwind noalias writable sret(%struct.DenseMatrix) align 8 %0, ptr noundef %1, ptr noundef %2) #2 !dbg !2403 {
  %4 = alloca ptr, align 8
  %5 = alloca ptr, align 8
  %6 = alloca i64, align 8
  store ptr %1, ptr %4, align 8
    #dbg_declare(ptr %4, !2404, !DIExpression(), !2405)
  store ptr %2, ptr %5, align 8
    #dbg_declare(ptr %5, !2406, !DIExpression(), !2407)
    #dbg_declare(ptr %0, !2408, !DIExpression(), !2409)
  %7 = load ptr, ptr %4, align 8, !dbg !2410
  %8 = getelementptr inbounds nuw %struct.DenseMatrix, ptr %7, i32 0, i32 1, !dbg !2411
  %9 = load i64, ptr %8, align 8, !dbg !2411
  %10 = load ptr, ptr %4, align 8, !dbg !2412
  %11 = getelementptr inbounds nuw %struct.DenseMatrix, ptr %10, i32 0, i32 2, !dbg !2413
  %12 = load i64, ptr %11, align 8, !dbg !2413
  call void @dense_matrix_create(ptr dead_on_unwind writable sret(%struct.DenseMatrix) align 8 %0, i64 noundef %9, i64 noundef %12), !dbg !2414
    #dbg_declare(ptr %6, !2415, !DIExpression(), !2417)
  store i64 0, ptr %6, align 8, !dbg !2417
  br label %13, !dbg !2418

13:                                               ; preds = %41, %3
  %14 = load i64, ptr %6, align 8, !dbg !2419
  %15 = load ptr, ptr %4, align 8, !dbg !2421
  %16 = getelementptr inbounds nuw %struct.DenseMatrix, ptr %15, i32 0, i32 1, !dbg !2422
  %17 = load i64, ptr %16, align 8, !dbg !2422
  %18 = load ptr, ptr %4, align 8, !dbg !2423
  %19 = getelementptr inbounds nuw %struct.DenseMatrix, ptr %18, i32 0, i32 2, !dbg !2424
  %20 = load i64, ptr %19, align 8, !dbg !2424
  %21 = mul i64 %17, %20, !dbg !2425
  %22 = icmp ult i64 %14, %21, !dbg !2426
  br i1 %22, label %23, label %44, !dbg !2427

23:                                               ; preds = %13
  %24 = load ptr, ptr %4, align 8, !dbg !2428
  %25 = getelementptr inbounds nuw %struct.DenseMatrix, ptr %24, i32 0, i32 0, !dbg !2430
  %26 = load ptr, ptr %25, align 8, !dbg !2430
  %27 = load i64, ptr %6, align 8, !dbg !2431
  %28 = getelementptr inbounds nuw double, ptr %26, i64 %27, !dbg !2428
  %29 = load double, ptr %28, align 8, !dbg !2428
  %30 = load ptr, ptr %5, align 8, !dbg !2432
  %31 = getelementptr inbounds nuw %struct.DenseMatrix, ptr %30, i32 0, i32 0, !dbg !2433
  %32 = load ptr, ptr %31, align 8, !dbg !2433
  %33 = load i64, ptr %6, align 8, !dbg !2434
  %34 = getelementptr inbounds nuw double, ptr %32, i64 %33, !dbg !2432
  %35 = load double, ptr %34, align 8, !dbg !2432
  %36 = fadd double %29, %35, !dbg !2435
  %37 = getelementptr inbounds nuw %struct.DenseMatrix, ptr %0, i32 0, i32 0, !dbg !2436
  %38 = load ptr, ptr %37, align 8, !dbg !2436
  %39 = load i64, ptr %6, align 8, !dbg !2437
  %40 = getelementptr inbounds nuw double, ptr %38, i64 %39, !dbg !2438
  store double %36, ptr %40, align 8, !dbg !2439
  br label %41, !dbg !2440

41:                                               ; preds = %23
  %42 = load i64, ptr %6, align 8, !dbg !2441
  %43 = add i64 %42, 1, !dbg !2441
  store i64 %43, ptr %6, align 8, !dbg !2441
  br label %13, !dbg !2442, !llvm.loop !2443

44:                                               ; preds = %13
  ret void, !dbg !2445
}

; Function Attrs: mustprogress noinline nounwind optnone sspstrong uwtable
define void @matrix_transpose(ptr dead_on_unwind noalias writable sret(%struct.DenseMatrix) align 8 %0, ptr noundef %1) #2 !dbg !2446 {
  %3 = alloca ptr, align 8
  %4 = alloca i64, align 8
  %5 = alloca i64, align 8
  store ptr %1, ptr %3, align 8
    #dbg_declare(ptr %3, !2447, !DIExpression(), !2448)
    #dbg_declare(ptr %0, !2449, !DIExpression(), !2450)
  %6 = load ptr, ptr %3, align 8, !dbg !2451
  %7 = getelementptr inbounds nuw %struct.DenseMatrix, ptr %6, i32 0, i32 2, !dbg !2452
  %8 = load i64, ptr %7, align 8, !dbg !2452
  %9 = load ptr, ptr %3, align 8, !dbg !2453
  %10 = getelementptr inbounds nuw %struct.DenseMatrix, ptr %9, i32 0, i32 1, !dbg !2454
  %11 = load i64, ptr %10, align 8, !dbg !2454
  call void @dense_matrix_create(ptr dead_on_unwind writable sret(%struct.DenseMatrix) align 8 %0, i64 noundef %8, i64 noundef %11), !dbg !2455
    #dbg_declare(ptr %4, !2456, !DIExpression(), !2458)
  store i64 0, ptr %4, align 8, !dbg !2458
  br label %12, !dbg !2459

12:                                               ; preds = %51, %2
  %13 = load i64, ptr %4, align 8, !dbg !2460
  %14 = load ptr, ptr %3, align 8, !dbg !2462
  %15 = getelementptr inbounds nuw %struct.DenseMatrix, ptr %14, i32 0, i32 1, !dbg !2463
  %16 = load i64, ptr %15, align 8, !dbg !2463
  %17 = icmp ult i64 %13, %16, !dbg !2464
  br i1 %17, label %18, label %54, !dbg !2465

18:                                               ; preds = %12
    #dbg_declare(ptr %5, !2466, !DIExpression(), !2469)
  store i64 0, ptr %5, align 8, !dbg !2469
  br label %19, !dbg !2470

19:                                               ; preds = %47, %18
  %20 = load i64, ptr %5, align 8, !dbg !2471
  %21 = load ptr, ptr %3, align 8, !dbg !2473
  %22 = getelementptr inbounds nuw %struct.DenseMatrix, ptr %21, i32 0, i32 2, !dbg !2474
  %23 = load i64, ptr %22, align 8, !dbg !2474
  %24 = icmp ult i64 %20, %23, !dbg !2475
  br i1 %24, label %25, label %50, !dbg !2476

25:                                               ; preds = %19
  %26 = load ptr, ptr %3, align 8, !dbg !2477
  %27 = getelementptr inbounds nuw %struct.DenseMatrix, ptr %26, i32 0, i32 0, !dbg !2479
  %28 = load ptr, ptr %27, align 8, !dbg !2479
  %29 = load i64, ptr %4, align 8, !dbg !2480
  %30 = load ptr, ptr %3, align 8, !dbg !2481
  %31 = getelementptr inbounds nuw %struct.DenseMatrix, ptr %30, i32 0, i32 2, !dbg !2482
  %32 = load i64, ptr %31, align 8, !dbg !2482
  %33 = mul i64 %29, %32, !dbg !2483
  %34 = load i64, ptr %5, align 8, !dbg !2484
  %35 = add i64 %33, %34, !dbg !2485
  %36 = getelementptr inbounds nuw double, ptr %28, i64 %35, !dbg !2477
  %37 = load double, ptr %36, align 8, !dbg !2477
  %38 = getelementptr inbounds nuw %struct.DenseMatrix, ptr %0, i32 0, i32 0, !dbg !2486
  %39 = load ptr, ptr %38, align 8, !dbg !2486
  %40 = load i64, ptr %5, align 8, !dbg !2487
  %41 = getelementptr inbounds nuw %struct.DenseMatrix, ptr %0, i32 0, i32 2, !dbg !2488
  %42 = load i64, ptr %41, align 8, !dbg !2488
  %43 = mul i64 %40, %42, !dbg !2489
  %44 = load i64, ptr %4, align 8, !dbg !2490
  %45 = add i64 %43, %44, !dbg !2491
  %46 = getelementptr inbounds nuw double, ptr %39, i64 %45, !dbg !2492
  store double %37, ptr %46, align 8, !dbg !2493
  br label %47, !dbg !2494

47:                                               ; preds = %25
  %48 = load i64, ptr %5, align 8, !dbg !2495
  %49 = add i64 %48, 1, !dbg !2495
  store i64 %49, ptr %5, align 8, !dbg !2495
  br label %19, !dbg !2496, !llvm.loop !2497

50:                                               ; preds = %19
  br label %51, !dbg !2499

51:                                               ; preds = %50
  %52 = load i64, ptr %4, align 8, !dbg !2500
  %53 = add i64 %52, 1, !dbg !2500
  store i64 %53, ptr %4, align 8, !dbg !2500
  br label %12, !dbg !2501, !llvm.loop !2502

54:                                               ; preds = %12
  ret void, !dbg !2504
}

; Function Attrs: mustprogress noinline optnone sspstrong uwtable
define double @matrix_trace(ptr noundef %0) #1 !dbg !2505 {
  %2 = alloca ptr, align 8
  %3 = alloca double, align 8
  %4 = alloca i64, align 8
  %5 = alloca i64, align 8
  store ptr %0, ptr %2, align 8
    #dbg_declare(ptr %2, !2508, !DIExpression(), !2509)
    #dbg_declare(ptr %3, !2510, !DIExpression(), !2511)
  store double 0.000000e+00, ptr %3, align 8, !dbg !2511
    #dbg_declare(ptr %4, !2512, !DIExpression(), !2513)
  %6 = load ptr, ptr %2, align 8, !dbg !2514
  %7 = getelementptr inbounds nuw %struct.DenseMatrix, ptr %6, i32 0, i32 1, !dbg !2515
  %8 = load ptr, ptr %2, align 8, !dbg !2516
  %9 = getelementptr inbounds nuw %struct.DenseMatrix, ptr %8, i32 0, i32 2, !dbg !2517
  %10 = call noundef nonnull align 8 dereferenceable(8) ptr @_ZSt3minImERKT_S2_S2_(ptr noundef nonnull align 8 dereferenceable(8) %7, ptr noundef nonnull align 8 dereferenceable(8) %9), !dbg !2518
  %11 = load i64, ptr %10, align 8, !dbg !2518
  store i64 %11, ptr %4, align 8, !dbg !2513
    #dbg_declare(ptr %5, !2519, !DIExpression(), !2521)
  store i64 0, ptr %5, align 8, !dbg !2521
  br label %12, !dbg !2522

12:                                               ; preds = %31, %1
  %13 = load i64, ptr %5, align 8, !dbg !2523
  %14 = load i64, ptr %4, align 8, !dbg !2525
  %15 = icmp ult i64 %13, %14, !dbg !2526
  br i1 %15, label %16, label %34, !dbg !2527

16:                                               ; preds = %12
  %17 = load ptr, ptr %2, align 8, !dbg !2528
  %18 = getelementptr inbounds nuw %struct.DenseMatrix, ptr %17, i32 0, i32 0, !dbg !2530
  %19 = load ptr, ptr %18, align 8, !dbg !2530
  %20 = load i64, ptr %5, align 8, !dbg !2531
  %21 = load ptr, ptr %2, align 8, !dbg !2532
  %22 = getelementptr inbounds nuw %struct.DenseMatrix, ptr %21, i32 0, i32 2, !dbg !2533
  %23 = load i64, ptr %22, align 8, !dbg !2533
  %24 = mul i64 %20, %23, !dbg !2534
  %25 = load i64, ptr %5, align 8, !dbg !2535
  %26 = add i64 %24, %25, !dbg !2536
  %27 = getelementptr inbounds nuw double, ptr %19, i64 %26, !dbg !2528
  %28 = load double, ptr %27, align 8, !dbg !2528
  %29 = load double, ptr %3, align 8, !dbg !2537
  %30 = fadd double %29, %28, !dbg !2537
  store double %30, ptr %3, align 8, !dbg !2537
  br label %31, !dbg !2538

31:                                               ; preds = %16
  %32 = load i64, ptr %5, align 8, !dbg !2539
  %33 = add i64 %32, 1, !dbg !2539
  store i64 %33, ptr %5, align 8, !dbg !2539
  br label %12, !dbg !2540, !llvm.loop !2541

34:                                               ; preds = %12
  %35 = load double, ptr %3, align 8, !dbg !2543
  ret double %35, !dbg !2544
}

; Function Attrs: mustprogress noinline optnone sspstrong uwtable
define double @matrix_determinant(ptr noundef %0) #1 !dbg !2545 {
  %2 = alloca double, align 8
  %3 = alloca ptr, align 8
  %4 = alloca %struct.LUDecomposition, align 8
  %5 = alloca double, align 8
  %6 = alloca i64, align 8
  store ptr %0, ptr %3, align 8
    #dbg_declare(ptr %3, !2546, !DIExpression(), !2547)
  %7 = load ptr, ptr %3, align 8, !dbg !2548
  %8 = getelementptr inbounds nuw %struct.DenseMatrix, ptr %7, i32 0, i32 1, !dbg !2550
  %9 = load i64, ptr %8, align 8, !dbg !2550
  %10 = icmp eq i64 %9, 2, !dbg !2551
  br i1 %10, label %11, label %40, !dbg !2552

11:                                               ; preds = %1
  %12 = load ptr, ptr %3, align 8, !dbg !2553
  %13 = getelementptr inbounds nuw %struct.DenseMatrix, ptr %12, i32 0, i32 2, !dbg !2554
  %14 = load i64, ptr %13, align 8, !dbg !2554
  %15 = icmp eq i64 %14, 2, !dbg !2555
  br i1 %15, label %16, label %40, !dbg !2552

16:                                               ; preds = %11
  %17 = load ptr, ptr %3, align 8, !dbg !2556
  %18 = getelementptr inbounds nuw %struct.DenseMatrix, ptr %17, i32 0, i32 0, !dbg !2558
  %19 = load ptr, ptr %18, align 8, !dbg !2558
  %20 = getelementptr inbounds double, ptr %19, i64 0, !dbg !2556
  %21 = load double, ptr %20, align 8, !dbg !2556
  %22 = load ptr, ptr %3, align 8, !dbg !2559
  %23 = getelementptr inbounds nuw %struct.DenseMatrix, ptr %22, i32 0, i32 0, !dbg !2560
  %24 = load ptr, ptr %23, align 8, !dbg !2560
  %25 = getelementptr inbounds double, ptr %24, i64 3, !dbg !2559
  %26 = load double, ptr %25, align 8, !dbg !2559
  %27 = load ptr, ptr %3, align 8, !dbg !2561
  %28 = getelementptr inbounds nuw %struct.DenseMatrix, ptr %27, i32 0, i32 0, !dbg !2562
  %29 = load ptr, ptr %28, align 8, !dbg !2562
  %30 = getelementptr inbounds double, ptr %29, i64 1, !dbg !2561
  %31 = load double, ptr %30, align 8, !dbg !2561
  %32 = load ptr, ptr %3, align 8, !dbg !2563
  %33 = getelementptr inbounds nuw %struct.DenseMatrix, ptr %32, i32 0, i32 0, !dbg !2564
  %34 = load ptr, ptr %33, align 8, !dbg !2564
  %35 = getelementptr inbounds double, ptr %34, i64 2, !dbg !2563
  %36 = load double, ptr %35, align 8, !dbg !2563
  %37 = fmul double %31, %36, !dbg !2565
  %38 = fneg double %37, !dbg !2566
  %39 = call double @llvm.fmuladd.f64(double %21, double %26, double %38), !dbg !2566
  store double %39, ptr %2, align 8, !dbg !2567
  br label %175, !dbg !2567

40:                                               ; preds = %11, %1
  %41 = load ptr, ptr %3, align 8, !dbg !2568
  %42 = getelementptr inbounds nuw %struct.DenseMatrix, ptr %41, i32 0, i32 1, !dbg !2570
  %43 = load i64, ptr %42, align 8, !dbg !2570
  %44 = icmp eq i64 %43, 3, !dbg !2571
  br i1 %44, label %45, label %139, !dbg !2572

45:                                               ; preds = %40
  %46 = load ptr, ptr %3, align 8, !dbg !2573
  %47 = getelementptr inbounds nuw %struct.DenseMatrix, ptr %46, i32 0, i32 2, !dbg !2574
  %48 = load i64, ptr %47, align 8, !dbg !2574
  %49 = icmp eq i64 %48, 3, !dbg !2575
  br i1 %49, label %50, label %139, !dbg !2572

50:                                               ; preds = %45
  %51 = load ptr, ptr %3, align 8, !dbg !2576
  %52 = getelementptr inbounds nuw %struct.DenseMatrix, ptr %51, i32 0, i32 0, !dbg !2578
  %53 = load ptr, ptr %52, align 8, !dbg !2578
  %54 = getelementptr inbounds double, ptr %53, i64 0, !dbg !2576
  %55 = load double, ptr %54, align 8, !dbg !2576
  %56 = load ptr, ptr %3, align 8, !dbg !2579
  %57 = getelementptr inbounds nuw %struct.DenseMatrix, ptr %56, i32 0, i32 0, !dbg !2580
  %58 = load ptr, ptr %57, align 8, !dbg !2580
  %59 = getelementptr inbounds double, ptr %58, i64 4, !dbg !2579
  %60 = load double, ptr %59, align 8, !dbg !2579
  %61 = load ptr, ptr %3, align 8, !dbg !2581
  %62 = getelementptr inbounds nuw %struct.DenseMatrix, ptr %61, i32 0, i32 0, !dbg !2582
  %63 = load ptr, ptr %62, align 8, !dbg !2582
  %64 = getelementptr inbounds double, ptr %63, i64 8, !dbg !2581
  %65 = load double, ptr %64, align 8, !dbg !2581
  %66 = load ptr, ptr %3, align 8, !dbg !2583
  %67 = getelementptr inbounds nuw %struct.DenseMatrix, ptr %66, i32 0, i32 0, !dbg !2584
  %68 = load ptr, ptr %67, align 8, !dbg !2584
  %69 = getelementptr inbounds double, ptr %68, i64 5, !dbg !2583
  %70 = load double, ptr %69, align 8, !dbg !2583
  %71 = load ptr, ptr %3, align 8, !dbg !2585
  %72 = getelementptr inbounds nuw %struct.DenseMatrix, ptr %71, i32 0, i32 0, !dbg !2586
  %73 = load ptr, ptr %72, align 8, !dbg !2586
  %74 = getelementptr inbounds double, ptr %73, i64 7, !dbg !2585
  %75 = load double, ptr %74, align 8, !dbg !2585
  %76 = fmul double %70, %75, !dbg !2587
  %77 = fneg double %76, !dbg !2588
  %78 = call double @llvm.fmuladd.f64(double %60, double %65, double %77), !dbg !2588
  %79 = load ptr, ptr %3, align 8, !dbg !2589
  %80 = getelementptr inbounds nuw %struct.DenseMatrix, ptr %79, i32 0, i32 0, !dbg !2590
  %81 = load ptr, ptr %80, align 8, !dbg !2590
  %82 = getelementptr inbounds double, ptr %81, i64 1, !dbg !2589
  %83 = load double, ptr %82, align 8, !dbg !2589
  %84 = load ptr, ptr %3, align 8, !dbg !2591
  %85 = getelementptr inbounds nuw %struct.DenseMatrix, ptr %84, i32 0, i32 0, !dbg !2592
  %86 = load ptr, ptr %85, align 8, !dbg !2592
  %87 = getelementptr inbounds double, ptr %86, i64 3, !dbg !2591
  %88 = load double, ptr %87, align 8, !dbg !2591
  %89 = load ptr, ptr %3, align 8, !dbg !2593
  %90 = getelementptr inbounds nuw %struct.DenseMatrix, ptr %89, i32 0, i32 0, !dbg !2594
  %91 = load ptr, ptr %90, align 8, !dbg !2594
  %92 = getelementptr inbounds double, ptr %91, i64 8, !dbg !2593
  %93 = load double, ptr %92, align 8, !dbg !2593
  %94 = load ptr, ptr %3, align 8, !dbg !2595
  %95 = getelementptr inbounds nuw %struct.DenseMatrix, ptr %94, i32 0, i32 0, !dbg !2596
  %96 = load ptr, ptr %95, align 8, !dbg !2596
  %97 = getelementptr inbounds double, ptr %96, i64 5, !dbg !2595
  %98 = load double, ptr %97, align 8, !dbg !2595
  %99 = load ptr, ptr %3, align 8, !dbg !2597
  %100 = getelementptr inbounds nuw %struct.DenseMatrix, ptr %99, i32 0, i32 0, !dbg !2598
  %101 = load ptr, ptr %100, align 8, !dbg !2598
  %102 = getelementptr inbounds double, ptr %101, i64 6, !dbg !2597
  %103 = load double, ptr %102, align 8, !dbg !2597
  %104 = fmul double %98, %103, !dbg !2599
  %105 = fneg double %104, !dbg !2600
  %106 = call double @llvm.fmuladd.f64(double %88, double %93, double %105), !dbg !2600
  %107 = fmul double %83, %106, !dbg !2601
  %108 = fneg double %107, !dbg !2602
  %109 = call double @llvm.fmuladd.f64(double %55, double %78, double %108), !dbg !2602
  %110 = load ptr, ptr %3, align 8, !dbg !2603
  %111 = getelementptr inbounds nuw %struct.DenseMatrix, ptr %110, i32 0, i32 0, !dbg !2604
  %112 = load ptr, ptr %111, align 8, !dbg !2604
  %113 = getelementptr inbounds double, ptr %112, i64 2, !dbg !2603
  %114 = load double, ptr %113, align 8, !dbg !2603
  %115 = load ptr, ptr %3, align 8, !dbg !2605
  %116 = getelementptr inbounds nuw %struct.DenseMatrix, ptr %115, i32 0, i32 0, !dbg !2606
  %117 = load ptr, ptr %116, align 8, !dbg !2606
  %118 = getelementptr inbounds double, ptr %117, i64 3, !dbg !2605
  %119 = load double, ptr %118, align 8, !dbg !2605
  %120 = load ptr, ptr %3, align 8, !dbg !2607
  %121 = getelementptr inbounds nuw %struct.DenseMatrix, ptr %120, i32 0, i32 0, !dbg !2608
  %122 = load ptr, ptr %121, align 8, !dbg !2608
  %123 = getelementptr inbounds double, ptr %122, i64 7, !dbg !2607
  %124 = load double, ptr %123, align 8, !dbg !2607
  %125 = load ptr, ptr %3, align 8, !dbg !2609
  %126 = getelementptr inbounds nuw %struct.DenseMatrix, ptr %125, i32 0, i32 0, !dbg !2610
  %127 = load ptr, ptr %126, align 8, !dbg !2610
  %128 = getelementptr inbounds double, ptr %127, i64 4, !dbg !2609
  %129 = load double, ptr %128, align 8, !dbg !2609
  %130 = load ptr, ptr %3, align 8, !dbg !2611
  %131 = getelementptr inbounds nuw %struct.DenseMatrix, ptr %130, i32 0, i32 0, !dbg !2612
  %132 = load ptr, ptr %131, align 8, !dbg !2612
  %133 = getelementptr inbounds double, ptr %132, i64 6, !dbg !2611
  %134 = load double, ptr %133, align 8, !dbg !2611
  %135 = fmul double %129, %134, !dbg !2613
  %136 = fneg double %135, !dbg !2614
  %137 = call double @llvm.fmuladd.f64(double %119, double %124, double %136), !dbg !2614
  %138 = call double @llvm.fmuladd.f64(double %114, double %137, double %109), !dbg !2615
  store double %138, ptr %2, align 8, !dbg !2616
  br label %175, !dbg !2616

139:                                              ; preds = %45, %40
    #dbg_declare(ptr %4, !2617, !DIExpression(), !2625)
  %140 = load ptr, ptr %3, align 8, !dbg !2626
  call void @compute_lu(ptr dead_on_unwind writable sret(%struct.LUDecomposition) align 8 %4, ptr noundef %140), !dbg !2627
  %141 = getelementptr inbounds nuw %struct.LUDecomposition, ptr %4, i32 0, i32 4, !dbg !2628
  %142 = load i32, ptr %141, align 8, !dbg !2628
  %143 = icmp ne i32 %142, 0, !dbg !2630
  br i1 %143, label %144, label %145, !dbg !2630

144:                                              ; preds = %139
  store double 0.000000e+00, ptr %2, align 8, !dbg !2631
  br label %175, !dbg !2631

145:                                              ; preds = %139
    #dbg_declare(ptr %5, !2633, !DIExpression(), !2634)
  store double 1.000000e+00, ptr %5, align 8, !dbg !2634
    #dbg_declare(ptr %6, !2635, !DIExpression(), !2637)
  store i64 0, ptr %6, align 8, !dbg !2637
  br label %146, !dbg !2638

146:                                              ; preds = %166, %145
  %147 = load i64, ptr %6, align 8, !dbg !2639
  %148 = getelementptr inbounds nuw %struct.LUDecomposition, ptr %4, i32 0, i32 3, !dbg !2641
  %149 = load i64, ptr %148, align 8, !dbg !2641
  %150 = icmp ult i64 %147, %149, !dbg !2642
  br i1 %150, label %151, label %169, !dbg !2643

151:                                              ; preds = %146
  %152 = getelementptr inbounds nuw %struct.LUDecomposition, ptr %4, i32 0, i32 1, !dbg !2644
  %153 = getelementptr inbounds nuw %struct.DenseMatrix, ptr %152, i32 0, i32 0, !dbg !2646
  %154 = load ptr, ptr %153, align 8, !dbg !2646
  %155 = load i64, ptr %6, align 8, !dbg !2647
  %156 = getelementptr inbounds nuw %struct.LUDecomposition, ptr %4, i32 0, i32 1, !dbg !2648
  %157 = getelementptr inbounds nuw %struct.DenseMatrix, ptr %156, i32 0, i32 2, !dbg !2649
  %158 = load i64, ptr %157, align 8, !dbg !2649
  %159 = mul i64 %155, %158, !dbg !2650
  %160 = load i64, ptr %6, align 8, !dbg !2651
  %161 = add i64 %159, %160, !dbg !2652
  %162 = getelementptr inbounds nuw double, ptr %154, i64 %161, !dbg !2653
  %163 = load double, ptr %162, align 8, !dbg !2653
  %164 = load double, ptr %5, align 8, !dbg !2654
  %165 = fmul double %164, %163, !dbg !2654
  store double %165, ptr %5, align 8, !dbg !2654
  br label %166, !dbg !2655

166:                                              ; preds = %151
  %167 = load i64, ptr %6, align 8, !dbg !2656
  %168 = add i64 %167, 1, !dbg !2656
  store i64 %168, ptr %6, align 8, !dbg !2656
  br label %146, !dbg !2657, !llvm.loop !2658

169:                                              ; preds = %146
  %170 = getelementptr inbounds nuw %struct.LUDecomposition, ptr %4, i32 0, i32 0, !dbg !2660
  call void @dense_matrix_destroy(ptr noundef %170), !dbg !2661
  %171 = getelementptr inbounds nuw %struct.LUDecomposition, ptr %4, i32 0, i32 1, !dbg !2662
  call void @dense_matrix_destroy(ptr noundef %171), !dbg !2663
  %172 = getelementptr inbounds nuw %struct.LUDecomposition, ptr %4, i32 0, i32 2, !dbg !2664
  %173 = load ptr, ptr %172, align 8, !dbg !2664
  call void @free(ptr noundef %173) #13, !dbg !2665
  %174 = load double, ptr %5, align 8, !dbg !2666
  store double %174, ptr %2, align 8, !dbg !2667
  br label %175, !dbg !2667

175:                                              ; preds = %169, %144, %50, %16
  %176 = load double, ptr %2, align 8, !dbg !2668
  ret double %176, !dbg !2668
}

; Function Attrs: mustprogress noinline optnone sspstrong uwtable
define void @compute_lu(ptr dead_on_unwind noalias writable sret(%struct.LUDecomposition) align 8 %0, ptr noundef %1) #1 !dbg !2669 {
  %3 = alloca ptr, align 8
  %4 = alloca %struct.DenseMatrix, align 8
  %5 = alloca %struct.DenseMatrix, align 8
  %6 = alloca i64, align 8
  %7 = alloca i64, align 8
  %8 = alloca i64, align 8
  %9 = alloca double, align 8
  %10 = alloca i64, align 8
  store ptr %1, ptr %3, align 8
    #dbg_declare(ptr %3, !2672, !DIExpression(), !2673)
    #dbg_declare(ptr %0, !2674, !DIExpression(), !2675)
  %11 = load ptr, ptr %3, align 8, !dbg !2676
  %12 = getelementptr inbounds nuw %struct.DenseMatrix, ptr %11, i32 0, i32 1, !dbg !2677
  %13 = load i64, ptr %12, align 8, !dbg !2677
  %14 = getelementptr inbounds nuw %struct.LUDecomposition, ptr %0, i32 0, i32 3, !dbg !2678
  store i64 %13, ptr %14, align 8, !dbg !2679
  %15 = load ptr, ptr %3, align 8, !dbg !2680
  %16 = getelementptr inbounds nuw %struct.DenseMatrix, ptr %15, i32 0, i32 1, !dbg !2681
  %17 = load i64, ptr %16, align 8, !dbg !2681
  %18 = load ptr, ptr %3, align 8, !dbg !2682
  %19 = getelementptr inbounds nuw %struct.DenseMatrix, ptr %18, i32 0, i32 2, !dbg !2683
  %20 = load i64, ptr %19, align 8, !dbg !2683
  call void @dense_matrix_create(ptr dead_on_unwind writable sret(%struct.DenseMatrix) align 8 %4, i64 noundef %17, i64 noundef %20), !dbg !2684
  %21 = getelementptr inbounds nuw %struct.LUDecomposition, ptr %0, i32 0, i32 0, !dbg !2685
  call void @llvm.memcpy.p0.p0.i64(ptr align 8 %21, ptr align 8 %4, i64 32, i1 false), !dbg !2686
  %22 = load ptr, ptr %3, align 8, !dbg !2687
  call void @dense_matrix_copy(ptr dead_on_unwind writable sret(%struct.DenseMatrix) align 8 %5, ptr noundef %22), !dbg !2688
  %23 = getelementptr inbounds nuw %struct.LUDecomposition, ptr %0, i32 0, i32 1, !dbg !2689
  call void @llvm.memcpy.p0.p0.i64(ptr align 8 %23, ptr align 8 %5, i64 32, i1 false), !dbg !2690
  %24 = load ptr, ptr %3, align 8, !dbg !2691
  %25 = getelementptr inbounds nuw %struct.DenseMatrix, ptr %24, i32 0, i32 1, !dbg !2692
  %26 = load i64, ptr %25, align 8, !dbg !2692
  %27 = mul i64 %26, 4, !dbg !2693
  %28 = call noalias ptr @malloc(i64 noundef %27) #14, !dbg !2694
  %29 = getelementptr inbounds nuw %struct.LUDecomposition, ptr %0, i32 0, i32 2, !dbg !2695
  store ptr %28, ptr %29, align 8, !dbg !2696
  %30 = getelementptr inbounds nuw %struct.LUDecomposition, ptr %0, i32 0, i32 4, !dbg !2697
  store i32 0, ptr %30, align 8, !dbg !2698
    #dbg_declare(ptr %6, !2699, !DIExpression(), !2701)
  store i64 0, ptr %6, align 8, !dbg !2701
  br label %31, !dbg !2702

31:                                               ; preds = %44, %2
  %32 = load i64, ptr %6, align 8, !dbg !2703
  %33 = load ptr, ptr %3, align 8, !dbg !2705
  %34 = getelementptr inbounds nuw %struct.DenseMatrix, ptr %33, i32 0, i32 1, !dbg !2706
  %35 = load i64, ptr %34, align 8, !dbg !2706
  %36 = icmp ult i64 %32, %35, !dbg !2707
  br i1 %36, label %37, label %47, !dbg !2708

37:                                               ; preds = %31
  %38 = load i64, ptr %6, align 8, !dbg !2709
  %39 = trunc i64 %38 to i32, !dbg !2709
  %40 = getelementptr inbounds nuw %struct.LUDecomposition, ptr %0, i32 0, i32 2, !dbg !2711
  %41 = load ptr, ptr %40, align 8, !dbg !2711
  %42 = load i64, ptr %6, align 8, !dbg !2712
  %43 = getelementptr inbounds nuw i32, ptr %41, i64 %42, !dbg !2713
  store i32 %39, ptr %43, align 4, !dbg !2714
  br label %44, !dbg !2715

44:                                               ; preds = %37
  %45 = load i64, ptr %6, align 8, !dbg !2716
  %46 = add i64 %45, 1, !dbg !2716
  store i64 %46, ptr %6, align 8, !dbg !2716
  br label %31, !dbg !2717, !llvm.loop !2718

47:                                               ; preds = %31
  %48 = getelementptr inbounds nuw %struct.LUDecomposition, ptr %0, i32 0, i32 0, !dbg !2720
  call void @dense_matrix_set_identity(ptr noundef %48), !dbg !2721
    #dbg_declare(ptr %7, !2722, !DIExpression(), !2724)
  store i64 0, ptr %7, align 8, !dbg !2724
  br label %49, !dbg !2725

49:                                               ; preds = %146, %47
  %50 = load i64, ptr %7, align 8, !dbg !2726
  %51 = load ptr, ptr %3, align 8, !dbg !2728
  %52 = getelementptr inbounds nuw %struct.DenseMatrix, ptr %51, i32 0, i32 1, !dbg !2729
  %53 = load i64, ptr %52, align 8, !dbg !2729
  %54 = sub i64 %53, 1, !dbg !2730
  %55 = icmp ult i64 %50, %54, !dbg !2731
  br i1 %55, label %56, label %149, !dbg !2732

56:                                               ; preds = %49
    #dbg_declare(ptr %8, !2733, !DIExpression(), !2736)
  %57 = load i64, ptr %7, align 8, !dbg !2737
  %58 = add i64 %57, 1, !dbg !2738
  store i64 %58, ptr %8, align 8, !dbg !2736
  br label %59, !dbg !2739

59:                                               ; preds = %142, %56
  %60 = load i64, ptr %8, align 8, !dbg !2740
  %61 = load ptr, ptr %3, align 8, !dbg !2742
  %62 = getelementptr inbounds nuw %struct.DenseMatrix, ptr %61, i32 0, i32 1, !dbg !2743
  %63 = load i64, ptr %62, align 8, !dbg !2743
  %64 = icmp ult i64 %60, %63, !dbg !2744
  br i1 %64, label %65, label %145, !dbg !2745

65:                                               ; preds = %59
    #dbg_declare(ptr %9, !2746, !DIExpression(), !2748)
  %66 = getelementptr inbounds nuw %struct.LUDecomposition, ptr %0, i32 0, i32 1, !dbg !2749
  %67 = getelementptr inbounds nuw %struct.DenseMatrix, ptr %66, i32 0, i32 0, !dbg !2750
  %68 = load ptr, ptr %67, align 8, !dbg !2750
  %69 = load i64, ptr %8, align 8, !dbg !2751
  %70 = load ptr, ptr %3, align 8, !dbg !2752
  %71 = getelementptr inbounds nuw %struct.DenseMatrix, ptr %70, i32 0, i32 2, !dbg !2753
  %72 = load i64, ptr %71, align 8, !dbg !2753
  %73 = mul i64 %69, %72, !dbg !2754
  %74 = load i64, ptr %7, align 8, !dbg !2755
  %75 = add i64 %73, %74, !dbg !2756
  %76 = getelementptr inbounds nuw double, ptr %68, i64 %75, !dbg !2757
  %77 = load double, ptr %76, align 8, !dbg !2757
  %78 = getelementptr inbounds nuw %struct.LUDecomposition, ptr %0, i32 0, i32 1, !dbg !2758
  %79 = getelementptr inbounds nuw %struct.DenseMatrix, ptr %78, i32 0, i32 0, !dbg !2759
  %80 = load ptr, ptr %79, align 8, !dbg !2759
  %81 = load i64, ptr %7, align 8, !dbg !2760
  %82 = load ptr, ptr %3, align 8, !dbg !2761
  %83 = getelementptr inbounds nuw %struct.DenseMatrix, ptr %82, i32 0, i32 2, !dbg !2762
  %84 = load i64, ptr %83, align 8, !dbg !2762
  %85 = mul i64 %81, %84, !dbg !2763
  %86 = load i64, ptr %7, align 8, !dbg !2764
  %87 = add i64 %85, %86, !dbg !2765
  %88 = getelementptr inbounds nuw double, ptr %80, i64 %87, !dbg !2766
  %89 = load double, ptr %88, align 8, !dbg !2766
  %90 = fdiv double %77, %89, !dbg !2767
  store double %90, ptr %9, align 8, !dbg !2748
  %91 = load double, ptr %9, align 8, !dbg !2768
  %92 = getelementptr inbounds nuw %struct.LUDecomposition, ptr %0, i32 0, i32 0, !dbg !2769
  %93 = getelementptr inbounds nuw %struct.DenseMatrix, ptr %92, i32 0, i32 0, !dbg !2770
  %94 = load ptr, ptr %93, align 8, !dbg !2770
  %95 = load i64, ptr %8, align 8, !dbg !2771
  %96 = load ptr, ptr %3, align 8, !dbg !2772
  %97 = getelementptr inbounds nuw %struct.DenseMatrix, ptr %96, i32 0, i32 2, !dbg !2773
  %98 = load i64, ptr %97, align 8, !dbg !2773
  %99 = mul i64 %95, %98, !dbg !2774
  %100 = load i64, ptr %7, align 8, !dbg !2775
  %101 = add i64 %99, %100, !dbg !2776
  %102 = getelementptr inbounds nuw double, ptr %94, i64 %101, !dbg !2777
  store double %91, ptr %102, align 8, !dbg !2778
    #dbg_declare(ptr %10, !2779, !DIExpression(), !2781)
  %103 = load i64, ptr %7, align 8, !dbg !2782
  store i64 %103, ptr %10, align 8, !dbg !2781
  br label %104, !dbg !2783

104:                                              ; preds = %138, %65
  %105 = load i64, ptr %10, align 8, !dbg !2784
  %106 = load ptr, ptr %3, align 8, !dbg !2786
  %107 = getelementptr inbounds nuw %struct.DenseMatrix, ptr %106, i32 0, i32 2, !dbg !2787
  %108 = load i64, ptr %107, align 8, !dbg !2787
  %109 = icmp ult i64 %105, %108, !dbg !2788
  br i1 %109, label %110, label %141, !dbg !2789

110:                                              ; preds = %104
  %111 = load double, ptr %9, align 8, !dbg !2790
  %112 = getelementptr inbounds nuw %struct.LUDecomposition, ptr %0, i32 0, i32 1, !dbg !2792
  %113 = getelementptr inbounds nuw %struct.DenseMatrix, ptr %112, i32 0, i32 0, !dbg !2793
  %114 = load ptr, ptr %113, align 8, !dbg !2793
  %115 = load i64, ptr %7, align 8, !dbg !2794
  %116 = load ptr, ptr %3, align 8, !dbg !2795
  %117 = getelementptr inbounds nuw %struct.DenseMatrix, ptr %116, i32 0, i32 2, !dbg !2796
  %118 = load i64, ptr %117, align 8, !dbg !2796
  %119 = mul i64 %115, %118, !dbg !2797
  %120 = load i64, ptr %10, align 8, !dbg !2798
  %121 = add i64 %119, %120, !dbg !2799
  %122 = getelementptr inbounds nuw double, ptr %114, i64 %121, !dbg !2800
  %123 = load double, ptr %122, align 8, !dbg !2800
  %124 = getelementptr inbounds nuw %struct.LUDecomposition, ptr %0, i32 0, i32 1, !dbg !2801
  %125 = getelementptr inbounds nuw %struct.DenseMatrix, ptr %124, i32 0, i32 0, !dbg !2802
  %126 = load ptr, ptr %125, align 8, !dbg !2802
  %127 = load i64, ptr %8, align 8, !dbg !2803
  %128 = load ptr, ptr %3, align 8, !dbg !2804
  %129 = getelementptr inbounds nuw %struct.DenseMatrix, ptr %128, i32 0, i32 2, !dbg !2805
  %130 = load i64, ptr %129, align 8, !dbg !2805
  %131 = mul i64 %127, %130, !dbg !2806
  %132 = load i64, ptr %10, align 8, !dbg !2807
  %133 = add i64 %131, %132, !dbg !2808
  %134 = getelementptr inbounds nuw double, ptr %126, i64 %133, !dbg !2809
  %135 = load double, ptr %134, align 8, !dbg !2810
  %136 = fneg double %111, !dbg !2810
  %137 = call double @llvm.fmuladd.f64(double %136, double %123, double %135), !dbg !2810
  store double %137, ptr %134, align 8, !dbg !2810
  br label %138, !dbg !2811

138:                                              ; preds = %110
  %139 = load i64, ptr %10, align 8, !dbg !2812
  %140 = add i64 %139, 1, !dbg !2812
  store i64 %140, ptr %10, align 8, !dbg !2812
  br label %104, !dbg !2813, !llvm.loop !2814

141:                                              ; preds = %104
  br label %142, !dbg !2816

142:                                              ; preds = %141
  %143 = load i64, ptr %8, align 8, !dbg !2817
  %144 = add i64 %143, 1, !dbg !2817
  store i64 %144, ptr %8, align 8, !dbg !2817
  br label %59, !dbg !2818, !llvm.loop !2819

145:                                              ; preds = %59
  br label %146, !dbg !2821

146:                                              ; preds = %145
  %147 = load i64, ptr %7, align 8, !dbg !2822
  %148 = add i64 %147, 1, !dbg !2822
  store i64 %148, ptr %7, align 8, !dbg !2822
  br label %49, !dbg !2823, !llvm.loop !2824

149:                                              ; preds = %49
  ret void, !dbg !2826
}

; Function Attrs: mustprogress noinline optnone sspstrong uwtable
define void @compute_qr(ptr dead_on_unwind noalias writable sret(%struct.QRDecomposition) align 8 %0, ptr noundef %1) #1 !dbg !2827 {
  %3 = alloca ptr, align 8
  %4 = alloca %struct.DenseMatrix, align 8
  %5 = alloca %struct.DenseMatrix, align 8
  store ptr %1, ptr %3, align 8
    #dbg_declare(ptr %3, !2837, !DIExpression(), !2838)
    #dbg_declare(ptr %0, !2839, !DIExpression(), !2840)
  %6 = load ptr, ptr %3, align 8, !dbg !2841
  %7 = getelementptr inbounds nuw %struct.DenseMatrix, ptr %6, i32 0, i32 1, !dbg !2842
  %8 = load i64, ptr %7, align 8, !dbg !2842
  %9 = getelementptr inbounds nuw %struct.QRDecomposition, ptr %0, i32 0, i32 2, !dbg !2843
  store i64 %8, ptr %9, align 8, !dbg !2844
  %10 = load ptr, ptr %3, align 8, !dbg !2845
  %11 = getelementptr inbounds nuw %struct.DenseMatrix, ptr %10, i32 0, i32 2, !dbg !2846
  %12 = load i64, ptr %11, align 8, !dbg !2846
  %13 = getelementptr inbounds nuw %struct.QRDecomposition, ptr %0, i32 0, i32 3, !dbg !2847
  store i64 %12, ptr %13, align 8, !dbg !2848
  %14 = load ptr, ptr %3, align 8, !dbg !2849
  %15 = getelementptr inbounds nuw %struct.DenseMatrix, ptr %14, i32 0, i32 1, !dbg !2850
  %16 = load i64, ptr %15, align 8, !dbg !2850
  %17 = load ptr, ptr %3, align 8, !dbg !2851
  %18 = getelementptr inbounds nuw %struct.DenseMatrix, ptr %17, i32 0, i32 1, !dbg !2852
  %19 = load i64, ptr %18, align 8, !dbg !2852
  call void @dense_matrix_create(ptr dead_on_unwind writable sret(%struct.DenseMatrix) align 8 %4, i64 noundef %16, i64 noundef %19), !dbg !2853
  %20 = getelementptr inbounds nuw %struct.QRDecomposition, ptr %0, i32 0, i32 0, !dbg !2854
  call void @llvm.memcpy.p0.p0.i64(ptr align 8 %20, ptr align 8 %4, i64 32, i1 false), !dbg !2855
  %21 = load ptr, ptr %3, align 8, !dbg !2856
  call void @dense_matrix_copy(ptr dead_on_unwind writable sret(%struct.DenseMatrix) align 8 %5, ptr noundef %21), !dbg !2857
  %22 = getelementptr inbounds nuw %struct.QRDecomposition, ptr %0, i32 0, i32 1, !dbg !2858
  call void @llvm.memcpy.p0.p0.i64(ptr align 8 %22, ptr align 8 %5, i64 32, i1 false), !dbg !2859
  %23 = getelementptr inbounds nuw %struct.QRDecomposition, ptr %0, i32 0, i32 4, !dbg !2860
  store i32 0, ptr %23, align 8, !dbg !2861
  %24 = getelementptr inbounds nuw %struct.QRDecomposition, ptr %0, i32 0, i32 0, !dbg !2862
  call void @dense_matrix_set_identity(ptr noundef %24), !dbg !2863
  ret void, !dbg !2864
}

; Function Attrs: mustprogress noinline optnone sspstrong uwtable
define void @compute_eigen(ptr dead_on_unwind noalias writable sret(%struct.EigenDecomposition) align 8 %0, ptr noundef %1) #1 !dbg !2865 {
  %3 = alloca ptr, align 8
  %4 = alloca %struct.DenseMatrix, align 8
  %5 = alloca i64, align 8
  store ptr %1, ptr %3, align 8
    #dbg_declare(ptr %3, !2875, !DIExpression(), !2876)
    #dbg_declare(ptr %0, !2877, !DIExpression(), !2878)
  %6 = load ptr, ptr %3, align 8, !dbg !2879
  %7 = getelementptr inbounds nuw %struct.DenseMatrix, ptr %6, i32 0, i32 1, !dbg !2880
  %8 = load i64, ptr %7, align 8, !dbg !2880
  %9 = getelementptr inbounds nuw %struct.EigenDecomposition, ptr %0, i32 0, i32 3, !dbg !2881
  store i64 %8, ptr %9, align 8, !dbg !2882
  %10 = load ptr, ptr %3, align 8, !dbg !2883
  %11 = getelementptr inbounds nuw %struct.DenseMatrix, ptr %10, i32 0, i32 1, !dbg !2884
  %12 = load i64, ptr %11, align 8, !dbg !2884
  %13 = call noalias ptr @calloc(i64 noundef %12, i64 noundef 8) #12, !dbg !2885
  %14 = getelementptr inbounds nuw %struct.EigenDecomposition, ptr %0, i32 0, i32 0, !dbg !2886
  store ptr %13, ptr %14, align 8, !dbg !2887
  %15 = load ptr, ptr %3, align 8, !dbg !2888
  %16 = getelementptr inbounds nuw %struct.DenseMatrix, ptr %15, i32 0, i32 1, !dbg !2889
  %17 = load i64, ptr %16, align 8, !dbg !2889
  %18 = call noalias ptr @calloc(i64 noundef %17, i64 noundef 8) #12, !dbg !2890
  %19 = getelementptr inbounds nuw %struct.EigenDecomposition, ptr %0, i32 0, i32 1, !dbg !2891
  store ptr %18, ptr %19, align 8, !dbg !2892
  %20 = load ptr, ptr %3, align 8, !dbg !2893
  %21 = getelementptr inbounds nuw %struct.DenseMatrix, ptr %20, i32 0, i32 1, !dbg !2894
  %22 = load i64, ptr %21, align 8, !dbg !2894
  %23 = load ptr, ptr %3, align 8, !dbg !2895
  %24 = getelementptr inbounds nuw %struct.DenseMatrix, ptr %23, i32 0, i32 1, !dbg !2896
  %25 = load i64, ptr %24, align 8, !dbg !2896
  call void @dense_matrix_create(ptr dead_on_unwind writable sret(%struct.DenseMatrix) align 8 %4, i64 noundef %22, i64 noundef %25), !dbg !2897
  %26 = getelementptr inbounds nuw %struct.EigenDecomposition, ptr %0, i32 0, i32 2, !dbg !2898
  call void @llvm.memcpy.p0.p0.i64(ptr align 8 %26, ptr align 8 %4, i64 32, i1 false), !dbg !2899
  %27 = getelementptr inbounds nuw %struct.EigenDecomposition, ptr %0, i32 0, i32 4, !dbg !2900
  store i32 0, ptr %27, align 8, !dbg !2901
    #dbg_declare(ptr %5, !2902, !DIExpression(), !2904)
  store i64 0, ptr %5, align 8, !dbg !2904
  br label %28, !dbg !2905

28:                                               ; preds = %51, %2
  %29 = load i64, ptr %5, align 8, !dbg !2906
  %30 = load ptr, ptr %3, align 8, !dbg !2908
  %31 = getelementptr inbounds nuw %struct.DenseMatrix, ptr %30, i32 0, i32 1, !dbg !2909
  %32 = load i64, ptr %31, align 8, !dbg !2909
  %33 = icmp ult i64 %29, %32, !dbg !2910
  br i1 %33, label %34, label %54, !dbg !2911

34:                                               ; preds = %28
  %35 = load ptr, ptr %3, align 8, !dbg !2912
  %36 = getelementptr inbounds nuw %struct.DenseMatrix, ptr %35, i32 0, i32 0, !dbg !2914
  %37 = load ptr, ptr %36, align 8, !dbg !2914
  %38 = load i64, ptr %5, align 8, !dbg !2915
  %39 = load ptr, ptr %3, align 8, !dbg !2916
  %40 = getelementptr inbounds nuw %struct.DenseMatrix, ptr %39, i32 0, i32 2, !dbg !2917
  %41 = load i64, ptr %40, align 8, !dbg !2917
  %42 = mul i64 %38, %41, !dbg !2918
  %43 = load i64, ptr %5, align 8, !dbg !2919
  %44 = add i64 %42, %43, !dbg !2920
  %45 = getelementptr inbounds nuw double, ptr %37, i64 %44, !dbg !2912
  %46 = load double, ptr %45, align 8, !dbg !2912
  %47 = getelementptr inbounds nuw %struct.EigenDecomposition, ptr %0, i32 0, i32 0, !dbg !2921
  %48 = load ptr, ptr %47, align 8, !dbg !2921
  %49 = load i64, ptr %5, align 8, !dbg !2922
  %50 = getelementptr inbounds nuw double, ptr %48, i64 %49, !dbg !2923
  store double %46, ptr %50, align 8, !dbg !2924
  br label %51, !dbg !2925

51:                                               ; preds = %34
  %52 = load i64, ptr %5, align 8, !dbg !2926
  %53 = add i64 %52, 1, !dbg !2926
  store i64 %53, ptr %5, align 8, !dbg !2926
  br label %28, !dbg !2927, !llvm.loop !2928

54:                                               ; preds = %28
  %55 = getelementptr inbounds nuw %struct.EigenDecomposition, ptr %0, i32 0, i32 2, !dbg !2930
  call void @dense_matrix_set_identity(ptr noundef %55), !dbg !2931
  ret void, !dbg !2932
}

; Function Attrs: mustprogress noinline nounwind optnone sspstrong uwtable
define i32 @solve_linear_system_lu(ptr noundef %0, ptr noundef %1, ptr noundef %2, i64 noundef %3) #2 !dbg !2933 {
  %5 = alloca ptr, align 8
  %6 = alloca ptr, align 8
  %7 = alloca ptr, align 8
  %8 = alloca i64, align 8
  %9 = alloca ptr, align 8
  %10 = alloca i64, align 8
  %11 = alloca i64, align 8
  %12 = alloca i32, align 4
  %13 = alloca i64, align 8
  store ptr %0, ptr %5, align 8
    #dbg_declare(ptr %5, !2938, !DIExpression(), !2939)
  store ptr %1, ptr %6, align 8
    #dbg_declare(ptr %6, !2940, !DIExpression(), !2941)
  store ptr %2, ptr %7, align 8
    #dbg_declare(ptr %7, !2942, !DIExpression(), !2943)
  store i64 %3, ptr %8, align 8
    #dbg_declare(ptr %8, !2944, !DIExpression(), !2945)
    #dbg_declare(ptr %9, !2946, !DIExpression(), !2947)
  %14 = load i64, ptr %8, align 8, !dbg !2948
  %15 = mul i64 %14, 8, !dbg !2949
  %16 = call noalias ptr @malloc(i64 noundef %15) #14, !dbg !2950
  store ptr %16, ptr %9, align 8, !dbg !2947
    #dbg_declare(ptr %10, !2951, !DIExpression(), !2953)
  store i64 0, ptr %10, align 8, !dbg !2953
  br label %17, !dbg !2954

17:                                               ; preds = %59, %4
  %18 = load i64, ptr %10, align 8, !dbg !2955
  %19 = load i64, ptr %8, align 8, !dbg !2957
  %20 = icmp ult i64 %18, %19, !dbg !2958
  br i1 %20, label %21, label %62, !dbg !2959

21:                                               ; preds = %17
  %22 = load ptr, ptr %6, align 8, !dbg !2960
  %23 = load i64, ptr %10, align 8, !dbg !2962
  %24 = getelementptr inbounds nuw double, ptr %22, i64 %23, !dbg !2960
  %25 = load double, ptr %24, align 8, !dbg !2960
  %26 = load ptr, ptr %9, align 8, !dbg !2963
  %27 = load i64, ptr %10, align 8, !dbg !2964
  %28 = getelementptr inbounds nuw double, ptr %26, i64 %27, !dbg !2963
  store double %25, ptr %28, align 8, !dbg !2965
    #dbg_declare(ptr %11, !2966, !DIExpression(), !2968)
  store i64 0, ptr %11, align 8, !dbg !2968
  br label %29, !dbg !2969

29:                                               ; preds = %55, %21
  %30 = load i64, ptr %11, align 8, !dbg !2970
  %31 = load i64, ptr %10, align 8, !dbg !2972
  %32 = icmp ult i64 %30, %31, !dbg !2973
  br i1 %32, label %33, label %58, !dbg !2974

33:                                               ; preds = %29
  %34 = load ptr, ptr %5, align 8, !dbg !2975
  %35 = getelementptr inbounds nuw %struct.LUDecomposition, ptr %34, i32 0, i32 0, !dbg !2977
  %36 = getelementptr inbounds nuw %struct.DenseMatrix, ptr %35, i32 0, i32 0, !dbg !2978
  %37 = load ptr, ptr %36, align 8, !dbg !2978
  %38 = load i64, ptr %10, align 8, !dbg !2979
  %39 = load i64, ptr %8, align 8, !dbg !2980
  %40 = mul i64 %38, %39, !dbg !2981
  %41 = load i64, ptr %11, align 8, !dbg !2982
  %42 = add i64 %40, %41, !dbg !2983
  %43 = getelementptr inbounds nuw double, ptr %37, i64 %42, !dbg !2975
  %44 = load double, ptr %43, align 8, !dbg !2975
  %45 = load ptr, ptr %9, align 8, !dbg !2984
  %46 = load i64, ptr %11, align 8, !dbg !2985
  %47 = getelementptr inbounds nuw double, ptr %45, i64 %46, !dbg !2984
  %48 = load double, ptr %47, align 8, !dbg !2984
  %49 = load ptr, ptr %9, align 8, !dbg !2986
  %50 = load i64, ptr %10, align 8, !dbg !2987
  %51 = getelementptr inbounds nuw double, ptr %49, i64 %50, !dbg !2986
  %52 = load double, ptr %51, align 8, !dbg !2988
  %53 = fneg double %44, !dbg !2988
  %54 = call double @llvm.fmuladd.f64(double %53, double %48, double %52), !dbg !2988
  store double %54, ptr %51, align 8, !dbg !2988
  br label %55, !dbg !2989

55:                                               ; preds = %33
  %56 = load i64, ptr %11, align 8, !dbg !2990
  %57 = add i64 %56, 1, !dbg !2990
  store i64 %57, ptr %11, align 8, !dbg !2990
  br label %29, !dbg !2991, !llvm.loop !2992

58:                                               ; preds = %29
  br label %59, !dbg !2994

59:                                               ; preds = %58
  %60 = load i64, ptr %10, align 8, !dbg !2995
  %61 = add i64 %60, 1, !dbg !2995
  store i64 %61, ptr %10, align 8, !dbg !2995
  br label %17, !dbg !2996, !llvm.loop !2997

62:                                               ; preds = %17
    #dbg_declare(ptr %12, !2999, !DIExpression(), !3001)
  %63 = load i64, ptr %8, align 8, !dbg !3002
  %64 = sub i64 %63, 1, !dbg !3003
  %65 = trunc i64 %64 to i32, !dbg !3002
  store i32 %65, ptr %12, align 4, !dbg !3001
  br label %66, !dbg !3004

66:                                               ; preds = %133, %62
  %67 = load i32, ptr %12, align 4, !dbg !3005
  %68 = icmp sge i32 %67, 0, !dbg !3007
  br i1 %68, label %69, label %136, !dbg !3008

69:                                               ; preds = %66
  %70 = load ptr, ptr %9, align 8, !dbg !3009
  %71 = load i32, ptr %12, align 4, !dbg !3011
  %72 = sext i32 %71 to i64, !dbg !3009
  %73 = getelementptr inbounds double, ptr %70, i64 %72, !dbg !3009
  %74 = load double, ptr %73, align 8, !dbg !3009
  %75 = load ptr, ptr %7, align 8, !dbg !3012
  %76 = load i32, ptr %12, align 4, !dbg !3013
  %77 = sext i32 %76 to i64, !dbg !3012
  %78 = getelementptr inbounds double, ptr %75, i64 %77, !dbg !3012
  store double %74, ptr %78, align 8, !dbg !3014
    #dbg_declare(ptr %13, !3015, !DIExpression(), !3017)
  %79 = load i32, ptr %12, align 4, !dbg !3018
  %80 = add nsw i32 %79, 1, !dbg !3019
  %81 = sext i32 %80 to i64, !dbg !3018
  store i64 %81, ptr %13, align 8, !dbg !3017
  br label %82, !dbg !3020

82:                                               ; preds = %110, %69
  %83 = load i64, ptr %13, align 8, !dbg !3021
  %84 = load i64, ptr %8, align 8, !dbg !3023
  %85 = icmp ult i64 %83, %84, !dbg !3024
  br i1 %85, label %86, label %113, !dbg !3025

86:                                               ; preds = %82
  %87 = load ptr, ptr %5, align 8, !dbg !3026
  %88 = getelementptr inbounds nuw %struct.LUDecomposition, ptr %87, i32 0, i32 1, !dbg !3028
  %89 = getelementptr inbounds nuw %struct.DenseMatrix, ptr %88, i32 0, i32 0, !dbg !3029
  %90 = load ptr, ptr %89, align 8, !dbg !3029
  %91 = load i32, ptr %12, align 4, !dbg !3030
  %92 = sext i32 %91 to i64, !dbg !3030
  %93 = load i64, ptr %8, align 8, !dbg !3031
  %94 = mul i64 %92, %93, !dbg !3032
  %95 = load i64, ptr %13, align 8, !dbg !3033
  %96 = add i64 %94, %95, !dbg !3034
  %97 = getelementptr inbounds nuw double, ptr %90, i64 %96, !dbg !3026
  %98 = load double, ptr %97, align 8, !dbg !3026
  %99 = load ptr, ptr %7, align 8, !dbg !3035
  %100 = load i64, ptr %13, align 8, !dbg !3036
  %101 = getelementptr inbounds nuw double, ptr %99, i64 %100, !dbg !3035
  %102 = load double, ptr %101, align 8, !dbg !3035
  %103 = load ptr, ptr %7, align 8, !dbg !3037
  %104 = load i32, ptr %12, align 4, !dbg !3038
  %105 = sext i32 %104 to i64, !dbg !3037
  %106 = getelementptr inbounds double, ptr %103, i64 %105, !dbg !3037
  %107 = load double, ptr %106, align 8, !dbg !3039
  %108 = fneg double %98, !dbg !3039
  %109 = call double @llvm.fmuladd.f64(double %108, double %102, double %107), !dbg !3039
  store double %109, ptr %106, align 8, !dbg !3039
  br label %110, !dbg !3040

110:                                              ; preds = %86
  %111 = load i64, ptr %13, align 8, !dbg !3041
  %112 = add i64 %111, 1, !dbg !3041
  store i64 %112, ptr %13, align 8, !dbg !3041
  br label %82, !dbg !3042, !llvm.loop !3043

113:                                              ; preds = %82
  %114 = load ptr, ptr %5, align 8, !dbg !3045
  %115 = getelementptr inbounds nuw %struct.LUDecomposition, ptr %114, i32 0, i32 1, !dbg !3046
  %116 = getelementptr inbounds nuw %struct.DenseMatrix, ptr %115, i32 0, i32 0, !dbg !3047
  %117 = load ptr, ptr %116, align 8, !dbg !3047
  %118 = load i32, ptr %12, align 4, !dbg !3048
  %119 = sext i32 %118 to i64, !dbg !3048
  %120 = load i64, ptr %8, align 8, !dbg !3049
  %121 = mul i64 %119, %120, !dbg !3050
  %122 = load i32, ptr %12, align 4, !dbg !3051
  %123 = sext i32 %122 to i64, !dbg !3051
  %124 = add i64 %121, %123, !dbg !3052
  %125 = getelementptr inbounds nuw double, ptr %117, i64 %124, !dbg !3045
  %126 = load double, ptr %125, align 8, !dbg !3045
  %127 = load ptr, ptr %7, align 8, !dbg !3053
  %128 = load i32, ptr %12, align 4, !dbg !3054
  %129 = sext i32 %128 to i64, !dbg !3053
  %130 = getelementptr inbounds double, ptr %127, i64 %129, !dbg !3053
  %131 = load double, ptr %130, align 8, !dbg !3055
  %132 = fdiv double %131, %126, !dbg !3055
  store double %132, ptr %130, align 8, !dbg !3055
  br label %133, !dbg !3056

133:                                              ; preds = %113
  %134 = load i32, ptr %12, align 4, !dbg !3057
  %135 = add nsw i32 %134, -1, !dbg !3057
  store i32 %135, ptr %12, align 4, !dbg !3057
  br label %66, !dbg !3058, !llvm.loop !3059

136:                                              ; preds = %66
  %137 = load ptr, ptr %9, align 8, !dbg !3061
  call void @free(ptr noundef %137) #13, !dbg !3062
  ret i32 0, !dbg !3063
}

; Function Attrs: mustprogress noinline nounwind optnone sspstrong uwtable
define i32 @solve_linear_system_qr(ptr noundef %0, ptr noundef %1, ptr noundef %2) #2 !dbg !3064 {
  %4 = alloca ptr, align 8
  %5 = alloca ptr, align 8
  %6 = alloca ptr, align 8
  store ptr %0, ptr %4, align 8
    #dbg_declare(ptr %4, !3069, !DIExpression(), !3070)
  store ptr %1, ptr %5, align 8
    #dbg_declare(ptr %5, !3071, !DIExpression(), !3072)
  store ptr %2, ptr %6, align 8
    #dbg_declare(ptr %6, !3073, !DIExpression(), !3074)
  ret i32 0, !dbg !3075
}

; Function Attrs: mustprogress noinline optnone sspstrong uwtable
define i32 @solve_least_squares(ptr noundef %0, ptr noundef %1, ptr noundef %2) #1 !dbg !3076 {
  %4 = alloca ptr, align 8
  %5 = alloca ptr, align 8
  %6 = alloca ptr, align 8
  %7 = alloca %struct.QRDecomposition, align 8
  %8 = alloca i32, align 4
  store ptr %0, ptr %4, align 8
    #dbg_declare(ptr %4, !3079, !DIExpression(), !3080)
  store ptr %1, ptr %5, align 8
    #dbg_declare(ptr %5, !3081, !DIExpression(), !3082)
  store ptr %2, ptr %6, align 8
    #dbg_declare(ptr %6, !3083, !DIExpression(), !3084)
    #dbg_declare(ptr %7, !3085, !DIExpression(), !3086)
  %9 = load ptr, ptr %4, align 8, !dbg !3087
  call void @compute_qr(ptr dead_on_unwind writable sret(%struct.QRDecomposition) align 8 %7, ptr noundef %9), !dbg !3088
    #dbg_declare(ptr %8, !3089, !DIExpression(), !3090)
  %10 = load ptr, ptr %5, align 8, !dbg !3091
  %11 = load ptr, ptr %6, align 8, !dbg !3092
  %12 = call i32 @solve_linear_system_qr(ptr noundef %7, ptr noundef %10, ptr noundef %11), !dbg !3093
  store i32 %12, ptr %8, align 4, !dbg !3090
  %13 = getelementptr inbounds nuw %struct.QRDecomposition, ptr %7, i32 0, i32 0, !dbg !3094
  call void @dense_matrix_destroy(ptr noundef %13), !dbg !3095
  %14 = getelementptr inbounds nuw %struct.QRDecomposition, ptr %7, i32 0, i32 1, !dbg !3096
  call void @dense_matrix_destroy(ptr noundef %14), !dbg !3097
  %15 = load i32, ptr %8, align 4, !dbg !3098
  ret i32 %15, !dbg !3099
}

; Function Attrs: mustprogress noinline optnone sspstrong uwtable
define i32 @solve_conjugate_gradient(ptr noundef %0, ptr noundef %1, ptr noundef %2, i64 noundef %3, double noundef %4, i32 noundef %5, ptr noundef %6) #1 !dbg !3100 {
  %8 = alloca i32, align 4
  %9 = alloca ptr, align 8
  %10 = alloca ptr, align 8
  %11 = alloca ptr, align 8
  %12 = alloca i64, align 8
  %13 = alloca double, align 8
  %14 = alloca i32, align 4
  %15 = alloca ptr, align 8
  %16 = alloca ptr, align 8
  %17 = alloca ptr, align 8
  %18 = alloca ptr, align 8
  %19 = alloca i64, align 8
  %20 = alloca double, align 8
  %21 = alloca i32, align 4
  %22 = alloca double, align 8
  %23 = alloca double, align 8
  %24 = alloca double, align 8
  %25 = alloca i64, align 8
  store ptr %0, ptr %9, align 8
    #dbg_declare(ptr %9, !3107, !DIExpression(), !3108)
  store ptr %1, ptr %10, align 8
    #dbg_declare(ptr %10, !3109, !DIExpression(), !3110)
  store ptr %2, ptr %11, align 8
    #dbg_declare(ptr %11, !3111, !DIExpression(), !3112)
  store i64 %3, ptr %12, align 8
    #dbg_declare(ptr %12, !3113, !DIExpression(), !3114)
  store double %4, ptr %13, align 8
    #dbg_declare(ptr %13, !3115, !DIExpression(), !3116)
  store i32 %5, ptr %14, align 4
    #dbg_declare(ptr %14, !3117, !DIExpression(), !3118)
  store ptr %6, ptr %15, align 8
    #dbg_declare(ptr %15, !3119, !DIExpression(), !3120)
    #dbg_declare(ptr %16, !3121, !DIExpression(), !3122)
  %26 = load i64, ptr %12, align 8, !dbg !3123
  %27 = mul i64 %26, 8, !dbg !3124
  %28 = call noalias ptr @malloc(i64 noundef %27) #14, !dbg !3125
  store ptr %28, ptr %16, align 8, !dbg !3122
    #dbg_declare(ptr %17, !3126, !DIExpression(), !3127)
  %29 = load i64, ptr %12, align 8, !dbg !3128
  %30 = mul i64 %29, 8, !dbg !3129
  %31 = call noalias ptr @malloc(i64 noundef %30) #14, !dbg !3130
  store ptr %31, ptr %17, align 8, !dbg !3127
    #dbg_declare(ptr %18, !3131, !DIExpression(), !3132)
  %32 = load i64, ptr %12, align 8, !dbg !3133
  %33 = mul i64 %32, 8, !dbg !3134
  %34 = call noalias ptr @malloc(i64 noundef %33) #14, !dbg !3135
  store ptr %34, ptr %18, align 8, !dbg !3132
  %35 = load ptr, ptr %9, align 8, !dbg !3136
  %36 = load ptr, ptr %11, align 8, !dbg !3137
  %37 = load ptr, ptr %18, align 8, !dbg !3138
  %38 = load i64, ptr %12, align 8, !dbg !3139
  %39 = load ptr, ptr %15, align 8, !dbg !3140
  call void %35(ptr noundef %36, ptr noundef %37, i64 noundef %38, ptr noundef %39), !dbg !3136
    #dbg_declare(ptr %19, !3141, !DIExpression(), !3143)
  store i64 0, ptr %19, align 8, !dbg !3143
  br label %40, !dbg !3144

40:                                               ; preds = %64, %7
  %41 = load i64, ptr %19, align 8, !dbg !3145
  %42 = load i64, ptr %12, align 8, !dbg !3147
  %43 = icmp ult i64 %41, %42, !dbg !3148
  br i1 %43, label %44, label %67, !dbg !3149

44:                                               ; preds = %40
  %45 = load ptr, ptr %10, align 8, !dbg !3150
  %46 = load i64, ptr %19, align 8, !dbg !3152
  %47 = getelementptr inbounds nuw double, ptr %45, i64 %46, !dbg !3150
  %48 = load double, ptr %47, align 8, !dbg !3150
  %49 = load ptr, ptr %18, align 8, !dbg !3153
  %50 = load i64, ptr %19, align 8, !dbg !3154
  %51 = getelementptr inbounds nuw double, ptr %49, i64 %50, !dbg !3153
  %52 = load double, ptr %51, align 8, !dbg !3153
  %53 = fsub double %48, %52, !dbg !3155
  %54 = load ptr, ptr %16, align 8, !dbg !3156
  %55 = load i64, ptr %19, align 8, !dbg !3157
  %56 = getelementptr inbounds nuw double, ptr %54, i64 %55, !dbg !3156
  store double %53, ptr %56, align 8, !dbg !3158
  %57 = load ptr, ptr %16, align 8, !dbg !3159
  %58 = load i64, ptr %19, align 8, !dbg !3160
  %59 = getelementptr inbounds nuw double, ptr %57, i64 %58, !dbg !3159
  %60 = load double, ptr %59, align 8, !dbg !3159
  %61 = load ptr, ptr %17, align 8, !dbg !3161
  %62 = load i64, ptr %19, align 8, !dbg !3162
  %63 = getelementptr inbounds nuw double, ptr %61, i64 %62, !dbg !3161
  store double %60, ptr %63, align 8, !dbg !3163
  br label %64, !dbg !3164

64:                                               ; preds = %44
  %65 = load i64, ptr %19, align 8, !dbg !3165
  %66 = add i64 %65, 1, !dbg !3165
  store i64 %66, ptr %19, align 8, !dbg !3165
  br label %40, !dbg !3166, !llvm.loop !3167

67:                                               ; preds = %40
    #dbg_declare(ptr %20, !3169, !DIExpression(), !3170)
  %68 = load ptr, ptr %16, align 8, !dbg !3171
  %69 = load ptr, ptr %16, align 8, !dbg !3172
  %70 = load i64, ptr %12, align 8, !dbg !3173
  %71 = call double @vector_dot(ptr noundef %68, ptr noundef %69, i64 noundef %70), !dbg !3174
  store double %71, ptr %20, align 8, !dbg !3170
    #dbg_declare(ptr %21, !3175, !DIExpression(), !3177)
  store i32 0, ptr %21, align 4, !dbg !3177
  br label %72, !dbg !3178

72:                                               ; preds = %136, %67
  %73 = load i32, ptr %21, align 4, !dbg !3179
  %74 = load i32, ptr %14, align 4, !dbg !3181
  %75 = icmp slt i32 %73, %74, !dbg !3182
  br i1 %75, label %76, label %139, !dbg !3183

76:                                               ; preds = %72
  %77 = load ptr, ptr %9, align 8, !dbg !3184
  %78 = load ptr, ptr %17, align 8, !dbg !3186
  %79 = load ptr, ptr %18, align 8, !dbg !3187
  %80 = load i64, ptr %12, align 8, !dbg !3188
  %81 = load ptr, ptr %15, align 8, !dbg !3189
  call void %77(ptr noundef %78, ptr noundef %79, i64 noundef %80, ptr noundef %81), !dbg !3184
    #dbg_declare(ptr %22, !3190, !DIExpression(), !3191)
  %82 = load double, ptr %20, align 8, !dbg !3192
  %83 = load ptr, ptr %17, align 8, !dbg !3193
  %84 = load ptr, ptr %18, align 8, !dbg !3194
  %85 = load i64, ptr %12, align 8, !dbg !3195
  %86 = call double @vector_dot(ptr noundef %83, ptr noundef %84, i64 noundef %85), !dbg !3196
  %87 = fdiv double %82, %86, !dbg !3197
  store double %87, ptr %22, align 8, !dbg !3191
  %88 = load ptr, ptr %11, align 8, !dbg !3198
  %89 = load double, ptr %22, align 8, !dbg !3199
  %90 = load ptr, ptr %17, align 8, !dbg !3200
  %91 = load i64, ptr %12, align 8, !dbg !3201
  call void @vector_axpy(ptr noundef %88, double noundef %89, ptr noundef %90, i64 noundef %91), !dbg !3202
  %92 = load ptr, ptr %16, align 8, !dbg !3203
  %93 = load double, ptr %22, align 8, !dbg !3204
  %94 = fneg double %93, !dbg !3205
  %95 = load ptr, ptr %18, align 8, !dbg !3206
  %96 = load i64, ptr %12, align 8, !dbg !3207
  call void @vector_axpy(ptr noundef %92, double noundef %94, ptr noundef %95, i64 noundef %96), !dbg !3208
    #dbg_declare(ptr %23, !3209, !DIExpression(), !3210)
  %97 = load ptr, ptr %16, align 8, !dbg !3211
  %98 = load ptr, ptr %16, align 8, !dbg !3212
  %99 = load i64, ptr %12, align 8, !dbg !3213
  %100 = call double @vector_dot(ptr noundef %97, ptr noundef %98, i64 noundef %99), !dbg !3214
  store double %100, ptr %23, align 8, !dbg !3210
  %101 = load double, ptr %23, align 8, !dbg !3215
  %102 = call double @sqrt(double noundef %101) #13, !dbg !3217
  %103 = load double, ptr %13, align 8, !dbg !3218
  %104 = fcmp olt double %102, %103, !dbg !3219
  br i1 %104, label %105, label %109, !dbg !3219

105:                                              ; preds = %76
  %106 = load ptr, ptr %16, align 8, !dbg !3220
  call void @free(ptr noundef %106) #13, !dbg !3222
  %107 = load ptr, ptr %17, align 8, !dbg !3223
  call void @free(ptr noundef %107) #13, !dbg !3224
  %108 = load ptr, ptr %18, align 8, !dbg !3225
  call void @free(ptr noundef %108) #13, !dbg !3226
  store i32 0, ptr %8, align 4, !dbg !3227
  br label %143, !dbg !3227

109:                                              ; preds = %76
    #dbg_declare(ptr %24, !3228, !DIExpression(), !3229)
  %110 = load double, ptr %23, align 8, !dbg !3230
  %111 = load double, ptr %20, align 8, !dbg !3231
  %112 = fdiv double %110, %111, !dbg !3232
  store double %112, ptr %24, align 8, !dbg !3229
    #dbg_declare(ptr %25, !3233, !DIExpression(), !3235)
  store i64 0, ptr %25, align 8, !dbg !3235
  br label %113, !dbg !3236

113:                                              ; preds = %131, %109
  %114 = load i64, ptr %25, align 8, !dbg !3237
  %115 = load i64, ptr %12, align 8, !dbg !3239
  %116 = icmp ult i64 %114, %115, !dbg !3240
  br i1 %116, label %117, label %134, !dbg !3241

117:                                              ; preds = %113
  %118 = load ptr, ptr %16, align 8, !dbg !3242
  %119 = load i64, ptr %25, align 8, !dbg !3244
  %120 = getelementptr inbounds nuw double, ptr %118, i64 %119, !dbg !3242
  %121 = load double, ptr %120, align 8, !dbg !3242
  %122 = load double, ptr %24, align 8, !dbg !3245
  %123 = load ptr, ptr %17, align 8, !dbg !3246
  %124 = load i64, ptr %25, align 8, !dbg !3247
  %125 = getelementptr inbounds nuw double, ptr %123, i64 %124, !dbg !3246
  %126 = load double, ptr %125, align 8, !dbg !3246
  %127 = call double @llvm.fmuladd.f64(double %122, double %126, double %121), !dbg !3248
  %128 = load ptr, ptr %17, align 8, !dbg !3249
  %129 = load i64, ptr %25, align 8, !dbg !3250
  %130 = getelementptr inbounds nuw double, ptr %128, i64 %129, !dbg !3249
  store double %127, ptr %130, align 8, !dbg !3251
  br label %131, !dbg !3252

131:                                              ; preds = %117
  %132 = load i64, ptr %25, align 8, !dbg !3253
  %133 = add i64 %132, 1, !dbg !3253
  store i64 %133, ptr %25, align 8, !dbg !3253
  br label %113, !dbg !3254, !llvm.loop !3255

134:                                              ; preds = %113
  %135 = load double, ptr %23, align 8, !dbg !3257
  store double %135, ptr %20, align 8, !dbg !3258
  br label %136, !dbg !3259

136:                                              ; preds = %134
  %137 = load i32, ptr %21, align 4, !dbg !3260
  %138 = add nsw i32 %137, 1, !dbg !3260
  store i32 %138, ptr %21, align 4, !dbg !3260
  br label %72, !dbg !3261, !llvm.loop !3262

139:                                              ; preds = %72
  %140 = load ptr, ptr %16, align 8, !dbg !3264
  call void @free(ptr noundef %140) #13, !dbg !3265
  %141 = load ptr, ptr %17, align 8, !dbg !3266
  call void @free(ptr noundef %141) #13, !dbg !3267
  %142 = load ptr, ptr %18, align 8, !dbg !3268
  call void @free(ptr noundef %142) #13, !dbg !3269
  store i32 -3, ptr %8, align 4, !dbg !3270
  br label %143, !dbg !3270

143:                                              ; preds = %139, %105
  %144 = load i32, ptr %8, align 4, !dbg !3271
  ret i32 %144, !dbg !3271
}

; Function Attrs: mustprogress noinline optnone sspstrong uwtable
define i32 @optimize_minimize(ptr noundef %0, ptr noundef %1, ptr noundef %2, i64 noundef %3, ptr noundef %4, ptr noundef %5, ptr noundef %6, ptr noundef %7) #1 !dbg !3272 {
  %9 = alloca i32, align 4
  %10 = alloca ptr, align 8
  %11 = alloca ptr, align 8
  %12 = alloca ptr, align 8
  %13 = alloca i64, align 8
  %14 = alloca ptr, align 8
  %15 = alloca ptr, align 8
  %16 = alloca ptr, align 8
  %17 = alloca ptr, align 8
  %18 = alloca ptr, align 8
  %19 = alloca ptr, align 8
  %20 = alloca ptr, align 8
  %21 = alloca i32, align 4
  %22 = alloca double, align 8
  %23 = alloca double, align 8
  %24 = alloca i64, align 8
  %25 = alloca double, align 8
  %26 = alloca %struct.OptimizationState, align 8
  store ptr %0, ptr %10, align 8
    #dbg_declare(ptr %10, !3303, !DIExpression(), !3304)
  store ptr %1, ptr %11, align 8
    #dbg_declare(ptr %11, !3305, !DIExpression(), !3306)
  store ptr %2, ptr %12, align 8
    #dbg_declare(ptr %12, !3307, !DIExpression(), !3308)
  store i64 %3, ptr %13, align 8
    #dbg_declare(ptr %13, !3309, !DIExpression(), !3310)
  store ptr %4, ptr %14, align 8
    #dbg_declare(ptr %14, !3311, !DIExpression(), !3312)
  store ptr %5, ptr %15, align 8
    #dbg_declare(ptr %15, !3313, !DIExpression(), !3314)
  store ptr %6, ptr %16, align 8
    #dbg_declare(ptr %16, !3315, !DIExpression(), !3316)
  store ptr %7, ptr %17, align 8
    #dbg_declare(ptr %17, !3317, !DIExpression(), !3318)
    #dbg_declare(ptr %18, !3319, !DIExpression(), !3320)
  %27 = load i64, ptr %13, align 8, !dbg !3321
  %28 = mul i64 %27, 8, !dbg !3322
  %29 = call noalias ptr @malloc(i64 noundef %28) #14, !dbg !3323
  store ptr %29, ptr %18, align 8, !dbg !3320
    #dbg_declare(ptr %19, !3324, !DIExpression(), !3325)
  %30 = load i64, ptr %13, align 8, !dbg !3326
  %31 = mul i64 %30, 8, !dbg !3327
  %32 = call noalias ptr @malloc(i64 noundef %31) #14, !dbg !3328
  store ptr %32, ptr %19, align 8, !dbg !3325
    #dbg_declare(ptr %20, !3329, !DIExpression(), !3330)
  %33 = load i64, ptr %13, align 8, !dbg !3331
  %34 = mul i64 %33, 8, !dbg !3332
  %35 = call noalias ptr @malloc(i64 noundef %34) #14, !dbg !3333
  store ptr %35, ptr %20, align 8, !dbg !3330
    #dbg_declare(ptr %21, !3334, !DIExpression(), !3336)
  store i32 0, ptr %21, align 4, !dbg !3336
  br label %36, !dbg !3337

36:                                               ; preds = %141, %8
  %37 = load i32, ptr %21, align 4, !dbg !3338
  %38 = load ptr, ptr %14, align 8, !dbg !3340
  %39 = getelementptr inbounds nuw %struct.OptimizationOptions, ptr %38, i32 0, i32 2, !dbg !3341
  %40 = load i32, ptr %39, align 8, !dbg !3341
  %41 = icmp slt i32 %37, %40, !dbg !3342
  br i1 %41, label %42, label %144, !dbg !3343

42:                                               ; preds = %36
    #dbg_declare(ptr %22, !3344, !DIExpression(), !3346)
  %43 = load ptr, ptr %10, align 8, !dbg !3347
  %44 = load ptr, ptr %12, align 8, !dbg !3348
  %45 = load i64, ptr %13, align 8, !dbg !3349
  %46 = load ptr, ptr %17, align 8, !dbg !3350
  %47 = call noundef double %43(ptr noundef %44, i64 noundef %45, ptr noundef %46), !dbg !3347
  store double %47, ptr %22, align 8, !dbg !3346
  %48 = load ptr, ptr %11, align 8, !dbg !3351
  %49 = load ptr, ptr %12, align 8, !dbg !3352
  %50 = load ptr, ptr %18, align 8, !dbg !3353
  %51 = load i64, ptr %13, align 8, !dbg !3354
  %52 = load ptr, ptr %17, align 8, !dbg !3355
  call void %48(ptr noundef %49, ptr noundef %50, i64 noundef %51, ptr noundef %52), !dbg !3351
    #dbg_declare(ptr %23, !3356, !DIExpression(), !3357)
  %53 = load ptr, ptr %18, align 8, !dbg !3358
  %54 = load i64, ptr %13, align 8, !dbg !3359
  %55 = call double @vector_norm(ptr noundef %53, i64 noundef %54), !dbg !3360
  store double %55, ptr %23, align 8, !dbg !3357
  %56 = load double, ptr %23, align 8, !dbg !3361
  %57 = load ptr, ptr %14, align 8, !dbg !3363
  %58 = getelementptr inbounds nuw %struct.OptimizationOptions, ptr %57, i32 0, i32 0, !dbg !3364
  %59 = load double, ptr %58, align 8, !dbg !3364
  %60 = fcmp olt double %56, %59, !dbg !3365
  br i1 %60, label %61, label %80, !dbg !3365

61:                                               ; preds = %42
  %62 = load ptr, ptr %15, align 8, !dbg !3366
  %63 = icmp ne ptr %62, null, !dbg !3366
  br i1 %63, label %64, label %76, !dbg !3366

64:                                               ; preds = %61
  %65 = load double, ptr %22, align 8, !dbg !3369
  %66 = load ptr, ptr %15, align 8, !dbg !3371
  %67 = getelementptr inbounds nuw %struct.OptimizationState, ptr %66, i32 0, i32 2, !dbg !3372
  store double %65, ptr %67, align 8, !dbg !3373
  %68 = load double, ptr %23, align 8, !dbg !3374
  %69 = load ptr, ptr %15, align 8, !dbg !3375
  %70 = getelementptr inbounds nuw %struct.OptimizationState, ptr %69, i32 0, i32 3, !dbg !3376
  store double %68, ptr %70, align 8, !dbg !3377
  %71 = load i32, ptr %21, align 4, !dbg !3378
  %72 = load ptr, ptr %15, align 8, !dbg !3379
  %73 = getelementptr inbounds nuw %struct.OptimizationState, ptr %72, i32 0, i32 4, !dbg !3380
  store i32 %71, ptr %73, align 8, !dbg !3381
  %74 = load ptr, ptr %15, align 8, !dbg !3382
  %75 = getelementptr inbounds nuw %struct.OptimizationState, ptr %74, i32 0, i32 6, !dbg !3383
  store i32 0, ptr %75, align 8, !dbg !3384
  br label %76, !dbg !3385

76:                                               ; preds = %64, %61
  %77 = load ptr, ptr %18, align 8, !dbg !3386
  call void @free(ptr noundef %77) #13, !dbg !3387
  %78 = load ptr, ptr %19, align 8, !dbg !3388
  call void @free(ptr noundef %78) #13, !dbg !3389
  %79 = load ptr, ptr %20, align 8, !dbg !3390
  call void @free(ptr noundef %79) #13, !dbg !3391
  store i32 0, ptr %9, align 4, !dbg !3392
  br label %148, !dbg !3392

80:                                               ; preds = %42
    #dbg_declare(ptr %24, !3393, !DIExpression(), !3395)
  store i64 0, ptr %24, align 8, !dbg !3395
  br label %81, !dbg !3396

81:                                               ; preds = %94, %80
  %82 = load i64, ptr %24, align 8, !dbg !3397
  %83 = load i64, ptr %13, align 8, !dbg !3399
  %84 = icmp ult i64 %82, %83, !dbg !3400
  br i1 %84, label %85, label %97, !dbg !3401

85:                                               ; preds = %81
  %86 = load ptr, ptr %18, align 8, !dbg !3402
  %87 = load i64, ptr %24, align 8, !dbg !3404
  %88 = getelementptr inbounds nuw double, ptr %86, i64 %87, !dbg !3402
  %89 = load double, ptr %88, align 8, !dbg !3402
  %90 = fneg double %89, !dbg !3405
  %91 = load ptr, ptr %19, align 8, !dbg !3406
  %92 = load i64, ptr %24, align 8, !dbg !3407
  %93 = getelementptr inbounds nuw double, ptr %91, i64 %92, !dbg !3406
  store double %90, ptr %93, align 8, !dbg !3408
  br label %94, !dbg !3409

94:                                               ; preds = %85
  %95 = load i64, ptr %24, align 8, !dbg !3410
  %96 = add i64 %95, 1, !dbg !3410
  store i64 %96, ptr %24, align 8, !dbg !3410
  br label %81, !dbg !3411, !llvm.loop !3412

97:                                               ; preds = %81
    #dbg_declare(ptr %25, !3414, !DIExpression(), !3415)
  %98 = load ptr, ptr %10, align 8, !dbg !3416
  %99 = load ptr, ptr %12, align 8, !dbg !3417
  %100 = load ptr, ptr %19, align 8, !dbg !3418
  %101 = load ptr, ptr %20, align 8, !dbg !3419
  %102 = load i64, ptr %13, align 8, !dbg !3420
  %103 = load ptr, ptr %14, align 8, !dbg !3421
  %104 = getelementptr inbounds nuw %struct.OptimizationOptions, ptr %103, i32 0, i32 1, !dbg !3422
  %105 = load double, ptr %104, align 8, !dbg !3422
  %106 = load ptr, ptr %17, align 8, !dbg !3423
  %107 = call double @line_search_backtracking(ptr noundef %98, ptr noundef %99, ptr noundef %100, ptr noundef %101, i64 noundef %102, double noundef %105, ptr noundef %106), !dbg !3424
  store double %107, ptr %25, align 8, !dbg !3415
  %108 = load ptr, ptr %12, align 8, !dbg !3425
  %109 = load ptr, ptr %20, align 8, !dbg !3426
  %110 = load i64, ptr %13, align 8, !dbg !3427
  call void @vector_copy(ptr noundef %108, ptr noundef %109, i64 noundef %110), !dbg !3428
  %111 = load ptr, ptr %16, align 8, !dbg !3429
  %112 = icmp ne ptr %111, null, !dbg !3429
  br i1 %112, label %113, label %140, !dbg !3429

113:                                              ; preds = %97
    #dbg_declare(ptr %26, !3431, !DIExpression(), !3433)
  %114 = load ptr, ptr %12, align 8, !dbg !3434
  %115 = getelementptr inbounds nuw %struct.OptimizationState, ptr %26, i32 0, i32 0, !dbg !3435
  store ptr %114, ptr %115, align 8, !dbg !3436
  %116 = load ptr, ptr %18, align 8, !dbg !3437
  %117 = getelementptr inbounds nuw %struct.OptimizationState, ptr %26, i32 0, i32 1, !dbg !3438
  store ptr %116, ptr %117, align 8, !dbg !3439
  %118 = load double, ptr %22, align 8, !dbg !3440
  %119 = getelementptr inbounds nuw %struct.OptimizationState, ptr %26, i32 0, i32 2, !dbg !3441
  store double %118, ptr %119, align 8, !dbg !3442
  %120 = load double, ptr %23, align 8, !dbg !3443
  %121 = getelementptr inbounds nuw %struct.OptimizationState, ptr %26, i32 0, i32 3, !dbg !3444
  store double %120, ptr %121, align 8, !dbg !3445
  %122 = load i32, ptr %21, align 4, !dbg !3446
  %123 = getelementptr inbounds nuw %struct.OptimizationState, ptr %26, i32 0, i32 4, !dbg !3447
  store i32 %122, ptr %123, align 8, !dbg !3448
  %124 = load i64, ptr %13, align 8, !dbg !3449
  %125 = getelementptr inbounds nuw %struct.OptimizationState, ptr %26, i32 0, i32 7, !dbg !3450
  store i64 %124, ptr %125, align 8, !dbg !3451
  %126 = getelementptr inbounds nuw %struct.OptimizationState, ptr %26, i32 0, i32 6, !dbg !3452
  store i32 0, ptr %126, align 8, !dbg !3453
  %127 = load ptr, ptr %16, align 8, !dbg !3454
  %128 = load ptr, ptr %17, align 8, !dbg !3456
  %129 = call noundef zeroext i1 %127(ptr noundef %26, ptr noundef %128), !dbg !3454
  br i1 %129, label %139, label %130, !dbg !3457

130:                                              ; preds = %113
  %131 = load ptr, ptr %15, align 8, !dbg !3458
  %132 = icmp ne ptr %131, null, !dbg !3458
  br i1 %132, label %133, label %135, !dbg !3458

133:                                              ; preds = %130
  %134 = load ptr, ptr %15, align 8, !dbg !3461
  call void @llvm.memcpy.p0.p0.i64(ptr align 8 %134, ptr align 8 %26, i64 56, i1 false), !dbg !3462
  br label %135, !dbg !3463

135:                                              ; preds = %133, %130
  %136 = load ptr, ptr %18, align 8, !dbg !3464
  call void @free(ptr noundef %136) #13, !dbg !3465
  %137 = load ptr, ptr %19, align 8, !dbg !3466
  call void @free(ptr noundef %137) #13, !dbg !3467
  %138 = load ptr, ptr %20, align 8, !dbg !3468
  call void @free(ptr noundef %138) #13, !dbg !3469
  store i32 0, ptr %9, align 4, !dbg !3470
  br label %148, !dbg !3470

139:                                              ; preds = %113
  br label %140, !dbg !3471

140:                                              ; preds = %139, %97
  br label %141, !dbg !3472

141:                                              ; preds = %140
  %142 = load i32, ptr %21, align 4, !dbg !3473
  %143 = add nsw i32 %142, 1, !dbg !3473
  store i32 %143, ptr %21, align 4, !dbg !3473
  br label %36, !dbg !3474, !llvm.loop !3475

144:                                              ; preds = %36
  %145 = load ptr, ptr %18, align 8, !dbg !3477
  call void @free(ptr noundef %145) #13, !dbg !3478
  %146 = load ptr, ptr %19, align 8, !dbg !3479
  call void @free(ptr noundef %146) #13, !dbg !3480
  %147 = load ptr, ptr %20, align 8, !dbg !3481
  call void @free(ptr noundef %147) #13, !dbg !3482
  store i32 -3, ptr %9, align 4, !dbg !3483
  br label %148, !dbg !3483

148:                                              ; preds = %144, %135, %76
  %149 = load i32, ptr %9, align 4, !dbg !3484
  ret i32 %149, !dbg !3484
}

; Function Attrs: mustprogress noinline optnone sspstrong uwtable
define double @line_search_backtracking(ptr noundef %0, ptr noundef %1, ptr noundef %2, ptr noundef %3, i64 noundef %4, double noundef %5, ptr noundef %6) #1 !dbg !3485 {
  %8 = alloca double, align 8
  %9 = alloca ptr, align 8
  %10 = alloca ptr, align 8
  %11 = alloca ptr, align 8
  %12 = alloca ptr, align 8
  %13 = alloca i64, align 8
  %14 = alloca double, align 8
  %15 = alloca ptr, align 8
  %16 = alloca double, align 8
  %17 = alloca double, align 8
  %18 = alloca double, align 8
  %19 = alloca double, align 8
  %20 = alloca i32, align 4
  %21 = alloca i64, align 8
  %22 = alloca double, align 8
  store ptr %0, ptr %9, align 8
    #dbg_declare(ptr %9, !3488, !DIExpression(), !3489)
  store ptr %1, ptr %10, align 8
    #dbg_declare(ptr %10, !3490, !DIExpression(), !3491)
  store ptr %2, ptr %11, align 8
    #dbg_declare(ptr %11, !3492, !DIExpression(), !3493)
  store ptr %3, ptr %12, align 8
    #dbg_declare(ptr %12, !3494, !DIExpression(), !3495)
  store i64 %4, ptr %13, align 8
    #dbg_declare(ptr %13, !3496, !DIExpression(), !3497)
  store double %5, ptr %14, align 8
    #dbg_declare(ptr %14, !3498, !DIExpression(), !3499)
  store ptr %6, ptr %15, align 8
    #dbg_declare(ptr %15, !3500, !DIExpression(), !3501)
    #dbg_declare(ptr %16, !3502, !DIExpression(), !3503)
  store double 5.000000e-01, ptr %16, align 8, !dbg !3503
    #dbg_declare(ptr %17, !3504, !DIExpression(), !3505)
  store double 5.000000e-01, ptr %17, align 8, !dbg !3505
    #dbg_declare(ptr %18, !3506, !DIExpression(), !3507)
  %23 = load double, ptr %14, align 8, !dbg !3508
  store double %23, ptr %18, align 8, !dbg !3507
    #dbg_declare(ptr %19, !3509, !DIExpression(), !3510)
  %24 = load ptr, ptr %9, align 8, !dbg !3511
  %25 = load ptr, ptr %10, align 8, !dbg !3512
  %26 = load i64, ptr %13, align 8, !dbg !3513
  %27 = load ptr, ptr %15, align 8, !dbg !3514
  %28 = call noundef double %24(ptr noundef %25, i64 noundef %26, ptr noundef %27), !dbg !3511
  store double %28, ptr %19, align 8, !dbg !3510
    #dbg_declare(ptr %20, !3515, !DIExpression(), !3517)
  store i32 0, ptr %20, align 4, !dbg !3517
  br label %29, !dbg !3518

29:                                               ; preds = %68, %7
  %30 = load i32, ptr %20, align 4, !dbg !3519
  %31 = icmp slt i32 %30, 20, !dbg !3521
  br i1 %31, label %32, label %71, !dbg !3522

32:                                               ; preds = %29
    #dbg_declare(ptr %21, !3523, !DIExpression(), !3526)
  store i64 0, ptr %21, align 8, !dbg !3526
  br label %33, !dbg !3527

33:                                               ; preds = %51, %32
  %34 = load i64, ptr %21, align 8, !dbg !3528
  %35 = load i64, ptr %13, align 8, !dbg !3530
  %36 = icmp ult i64 %34, %35, !dbg !3531
  br i1 %36, label %37, label %54, !dbg !3532

37:                                               ; preds = %33
  %38 = load ptr, ptr %10, align 8, !dbg !3533
  %39 = load i64, ptr %21, align 8, !dbg !3535
  %40 = getelementptr inbounds nuw double, ptr %38, i64 %39, !dbg !3533
  %41 = load double, ptr %40, align 8, !dbg !3533
  %42 = load double, ptr %18, align 8, !dbg !3536
  %43 = load ptr, ptr %11, align 8, !dbg !3537
  %44 = load i64, ptr %21, align 8, !dbg !3538
  %45 = getelementptr inbounds nuw double, ptr %43, i64 %44, !dbg !3537
  %46 = load double, ptr %45, align 8, !dbg !3537
  %47 = call double @llvm.fmuladd.f64(double %42, double %46, double %41), !dbg !3539
  %48 = load ptr, ptr %12, align 8, !dbg !3540
  %49 = load i64, ptr %21, align 8, !dbg !3541
  %50 = getelementptr inbounds nuw double, ptr %48, i64 %49, !dbg !3540
  store double %47, ptr %50, align 8, !dbg !3542
  br label %51, !dbg !3543

51:                                               ; preds = %37
  %52 = load i64, ptr %21, align 8, !dbg !3544
  %53 = add i64 %52, 1, !dbg !3544
  store i64 %53, ptr %21, align 8, !dbg !3544
  br label %33, !dbg !3545, !llvm.loop !3546

54:                                               ; preds = %33
    #dbg_declare(ptr %22, !3548, !DIExpression(), !3549)
  %55 = load ptr, ptr %9, align 8, !dbg !3550
  %56 = load ptr, ptr %12, align 8, !dbg !3551
  %57 = load i64, ptr %13, align 8, !dbg !3552
  %58 = load ptr, ptr %15, align 8, !dbg !3553
  %59 = call noundef double %55(ptr noundef %56, i64 noundef %57, ptr noundef %58), !dbg !3550
  store double %59, ptr %22, align 8, !dbg !3549
  %60 = load double, ptr %22, align 8, !dbg !3554
  %61 = load double, ptr %19, align 8, !dbg !3556
  %62 = fcmp olt double %60, %61, !dbg !3557
  br i1 %62, label %63, label %65, !dbg !3557

63:                                               ; preds = %54
  %64 = load double, ptr %18, align 8, !dbg !3558
  store double %64, ptr %8, align 8, !dbg !3560
  br label %73, !dbg !3560

65:                                               ; preds = %54
  %66 = load double, ptr %18, align 8, !dbg !3561
  %67 = fmul double %66, 5.000000e-01, !dbg !3561
  store double %67, ptr %18, align 8, !dbg !3561
  br label %68, !dbg !3562

68:                                               ; preds = %65
  %69 = load i32, ptr %20, align 4, !dbg !3563
  %70 = add nsw i32 %69, 1, !dbg !3563
  store i32 %70, ptr %20, align 4, !dbg !3563
  br label %29, !dbg !3564, !llvm.loop !3565

71:                                               ; preds = %29
  %72 = load double, ptr %18, align 8, !dbg !3567
  store double %72, ptr %8, align 8, !dbg !3568
  br label %73, !dbg !3568

73:                                               ; preds = %71, %63
  %74 = load double, ptr %8, align 8, !dbg !3569
  ret double %74, !dbg !3569
}

; Function Attrs: mustprogress noinline optnone sspstrong uwtable
define i32 @optimize_minimize_numerical_gradient(ptr noundef %0, ptr noundef %1, i64 noundef %2, ptr noundef %3, ptr noundef %4, ptr noundef %5, ptr noundef %6) #1 !dbg !3570 {
  %8 = alloca ptr, align 8
  %9 = alloca ptr, align 8
  %10 = alloca i64, align 8
  %11 = alloca ptr, align 8
  %12 = alloca ptr, align 8
  %13 = alloca ptr, align 8
  %14 = alloca ptr, align 8
  %15 = alloca %class.anon, align 1
  %16 = alloca [2 x ptr], align 16
  store ptr %0, ptr %8, align 8
    #dbg_declare(ptr %8, !3573, !DIExpression(), !3574)
  store ptr %1, ptr %9, align 8
    #dbg_declare(ptr %9, !3575, !DIExpression(), !3576)
  store i64 %2, ptr %10, align 8
    #dbg_declare(ptr %10, !3577, !DIExpression(), !3578)
  store ptr %3, ptr %11, align 8
    #dbg_declare(ptr %11, !3579, !DIExpression(), !3580)
  store ptr %4, ptr %12, align 8
    #dbg_declare(ptr %12, !3581, !DIExpression(), !3582)
  store ptr %5, ptr %13, align 8
    #dbg_declare(ptr %13, !3583, !DIExpression(), !3584)
  store ptr %6, ptr %14, align 8
    #dbg_declare(ptr %14, !3585, !DIExpression(), !3586)
    #dbg_declare(ptr %15, !3587, !DIExpression(), !3589)
    #dbg_declare(ptr %16, !3590, !DIExpression(), !3592)
  %17 = load ptr, ptr %8, align 8, !dbg !3593
  store ptr %17, ptr %16, align 8, !dbg !3594
  %18 = getelementptr inbounds ptr, ptr %16, i64 1, !dbg !3594
  %19 = load ptr, ptr %14, align 8, !dbg !3595
  store ptr %19, ptr %18, align 8, !dbg !3594
  %20 = load ptr, ptr %8, align 8, !dbg !3596
  %21 = call noundef ptr @"_ZZ36optimize_minimize_numerical_gradientENK3$_0cvPFvPKdPdmPvEEv"(ptr noundef nonnull align 1 dereferenceable(1) %15) #13, !dbg !3597
  %22 = load ptr, ptr %9, align 8, !dbg !3598
  %23 = load i64, ptr %10, align 8, !dbg !3599
  %24 = load ptr, ptr %11, align 8, !dbg !3600
  %25 = load ptr, ptr %12, align 8, !dbg !3601
  %26 = load ptr, ptr %13, align 8, !dbg !3602
  %27 = getelementptr inbounds [2 x ptr], ptr %16, i64 0, i64 0, !dbg !3603
  %28 = call i32 @optimize_minimize(ptr noundef %20, ptr noundef %21, ptr noundef %22, i64 noundef %23, ptr noundef %24, ptr noundef %25, ptr noundef %26, ptr noundef %27), !dbg !3604
  ret i32 %28, !dbg !3605
}

; Function Attrs: mustprogress noinline nounwind optnone sspstrong uwtable
define internal noundef ptr @"_ZZ36optimize_minimize_numerical_gradientENK3$_0cvPFvPKdPdmPvEEv"(ptr noundef nonnull align 1 dereferenceable(1) %0) #2 align 2 !dbg !3606 {
  %2 = alloca ptr, align 8
  store ptr %0, ptr %2, align 8
    #dbg_declare(ptr %2, !3612, !DIExpression(), !3614)
  %3 = load ptr, ptr %2, align 8
  ret ptr @"_ZZ36optimize_minimize_numerical_gradientEN3$_08__invokeEPKdPdmPv", !dbg !3615
}

; Function Attrs: mustprogress noinline optnone sspstrong uwtable
define internal void @"_ZZ36optimize_minimize_numerical_gradientEN3$_08__invokeEPKdPdmPv"(ptr noundef %0, ptr noundef %1, i64 noundef %2, ptr noundef %3) #1 align 2 !dbg !3616 {
  %5 = alloca ptr, align 8
  %6 = alloca ptr, align 8
  %7 = alloca i64, align 8
  %8 = alloca ptr, align 8
  %9 = alloca %class.anon, align 1
  store ptr %0, ptr %5, align 8
    #dbg_declare(ptr %5, !3618, !DIExpression(), !3619)
  store ptr %1, ptr %6, align 8
    #dbg_declare(ptr %6, !3620, !DIExpression(), !3619)
  store i64 %2, ptr %7, align 8
    #dbg_declare(ptr %7, !3621, !DIExpression(), !3619)
  store ptr %3, ptr %8, align 8
    #dbg_declare(ptr %8, !3622, !DIExpression(), !3619)
  %10 = load ptr, ptr %5, align 8, !dbg !3623
  %11 = load ptr, ptr %6, align 8, !dbg !3623
  %12 = load i64, ptr %7, align 8, !dbg !3623
  %13 = load ptr, ptr %8, align 8, !dbg !3623
  call void @"_ZZ36optimize_minimize_numerical_gradientENK3$_0clEPKdPdmPv"(ptr noundef nonnull align 1 dereferenceable(1) %9, ptr noundef %10, ptr noundef %11, i64 noundef %12, ptr noundef %13), !dbg !3623
  ret void, !dbg !3623
}

; Function Attrs: mustprogress noinline optnone sspstrong uwtable
define internal void @"_ZZ36optimize_minimize_numerical_gradientENK3$_0clEPKdPdmPv"(ptr noundef nonnull align 1 dereferenceable(1) %0, ptr noundef %1, ptr noundef %2, i64 noundef %3, ptr noundef %4) #1 align 2 !dbg !3624 {
  %6 = alloca ptr, align 8
  %7 = alloca ptr, align 8
  %8 = alloca ptr, align 8
  %9 = alloca i64, align 8
  %10 = alloca ptr, align 8
  %11 = alloca ptr, align 8
  %12 = alloca ptr, align 8
  %13 = alloca double, align 8
  %14 = alloca ptr, align 8
  %15 = alloca i64, align 8
  %16 = alloca double, align 8
  %17 = alloca double, align 8
  store ptr %0, ptr %6, align 8
    #dbg_declare(ptr %6, !3628, !DIExpression(), !3629)
  store ptr %1, ptr %7, align 8
    #dbg_declare(ptr %7, !3630, !DIExpression(), !3631)
  store ptr %2, ptr %8, align 8
    #dbg_declare(ptr %8, !3632, !DIExpression(), !3633)
  store i64 %3, ptr %9, align 8
    #dbg_declare(ptr %9, !3634, !DIExpression(), !3635)
  store ptr %4, ptr %10, align 8
    #dbg_declare(ptr %10, !3636, !DIExpression(), !3637)
  %18 = load ptr, ptr %6, align 8
    #dbg_declare(ptr %11, !3638, !DIExpression(), !3639)
  %19 = load ptr, ptr %10, align 8, !dbg !3640
  %20 = getelementptr inbounds ptr, ptr %19, i64 0, !dbg !3641
  %21 = load ptr, ptr %20, align 8, !dbg !3641
  store ptr %21, ptr %11, align 8, !dbg !3639
    #dbg_declare(ptr %12, !3642, !DIExpression(), !3643)
  %22 = load ptr, ptr %10, align 8, !dbg !3644
  %23 = getelementptr inbounds ptr, ptr %22, i64 1, !dbg !3645
  %24 = load ptr, ptr %23, align 8, !dbg !3645
  store ptr %24, ptr %12, align 8, !dbg !3643
    #dbg_declare(ptr %13, !3646, !DIExpression(), !3647)
  store double 1.000000e-08, ptr %13, align 8, !dbg !3647
    #dbg_declare(ptr %14, !3648, !DIExpression(), !3649)
  %25 = load i64, ptr %9, align 8, !dbg !3650
  %26 = mul i64 %25, 8, !dbg !3651
  %27 = call noalias ptr @malloc(i64 noundef %26) #14, !dbg !3652
  store ptr %27, ptr %14, align 8, !dbg !3649
    #dbg_declare(ptr %15, !3653, !DIExpression(), !3655)
  store i64 0, ptr %15, align 8, !dbg !3655
  br label %28, !dbg !3656

28:                                               ; preds = %66, %5
  %29 = load i64, ptr %15, align 8, !dbg !3657
  %30 = load i64, ptr %9, align 8, !dbg !3659
  %31 = icmp ult i64 %29, %30, !dbg !3660
  br i1 %31, label %32, label %69, !dbg !3661

32:                                               ; preds = %28
  %33 = load ptr, ptr %14, align 8, !dbg !3662
  %34 = load ptr, ptr %7, align 8, !dbg !3664
  %35 = load i64, ptr %9, align 8, !dbg !3665
  call void @vector_copy(ptr noundef %33, ptr noundef %34, i64 noundef %35), !dbg !3666
  %36 = load ptr, ptr %14, align 8, !dbg !3667
  %37 = load i64, ptr %15, align 8, !dbg !3668
  %38 = getelementptr inbounds nuw double, ptr %36, i64 %37, !dbg !3667
  %39 = load double, ptr %38, align 8, !dbg !3669
  %40 = fadd double %39, 1.000000e-08, !dbg !3669
  store double %40, ptr %38, align 8, !dbg !3669
    #dbg_declare(ptr %16, !3670, !DIExpression(), !3671)
  %41 = load ptr, ptr %11, align 8, !dbg !3672
  %42 = load ptr, ptr %14, align 8, !dbg !3673
  %43 = load i64, ptr %9, align 8, !dbg !3674
  %44 = load ptr, ptr %12, align 8, !dbg !3675
  %45 = call noundef double %41(ptr noundef %42, i64 noundef %43, ptr noundef %44), !dbg !3672
  store double %45, ptr %16, align 8, !dbg !3671
  %46 = load ptr, ptr %7, align 8, !dbg !3676
  %47 = load i64, ptr %15, align 8, !dbg !3677
  %48 = getelementptr inbounds nuw double, ptr %46, i64 %47, !dbg !3676
  %49 = load double, ptr %48, align 8, !dbg !3676
  %50 = fsub double %49, 1.000000e-08, !dbg !3678
  %51 = load ptr, ptr %14, align 8, !dbg !3679
  %52 = load i64, ptr %15, align 8, !dbg !3680
  %53 = getelementptr inbounds nuw double, ptr %51, i64 %52, !dbg !3679
  store double %50, ptr %53, align 8, !dbg !3681
    #dbg_declare(ptr %17, !3682, !DIExpression(), !3683)
  %54 = load ptr, ptr %11, align 8, !dbg !3684
  %55 = load ptr, ptr %14, align 8, !dbg !3685
  %56 = load i64, ptr %9, align 8, !dbg !3686
  %57 = load ptr, ptr %12, align 8, !dbg !3687
  %58 = call noundef double %54(ptr noundef %55, i64 noundef %56, ptr noundef %57), !dbg !3684
  store double %58, ptr %17, align 8, !dbg !3683
  %59 = load double, ptr %16, align 8, !dbg !3688
  %60 = load double, ptr %17, align 8, !dbg !3689
  %61 = fsub double %59, %60, !dbg !3690
  %62 = fdiv double %61, 2.000000e-08, !dbg !3691
  %63 = load ptr, ptr %8, align 8, !dbg !3692
  %64 = load i64, ptr %15, align 8, !dbg !3693
  %65 = getelementptr inbounds nuw double, ptr %63, i64 %64, !dbg !3692
  store double %62, ptr %65, align 8, !dbg !3694
  br label %66, !dbg !3695

66:                                               ; preds = %32
  %67 = load i64, ptr %15, align 8, !dbg !3696
  %68 = add i64 %67, 1, !dbg !3696
  store i64 %68, ptr %15, align 8, !dbg !3696
  br label %28, !dbg !3697, !llvm.loop !3698

69:                                               ; preds = %28
  %70 = load ptr, ptr %14, align 8, !dbg !3700
  call void @free(ptr noundef %70) #13, !dbg !3701
  ret void, !dbg !3702
}

; Function Attrs: mustprogress noinline optnone sspstrong uwtable
define void @solve_ode_rk4(ptr dead_on_unwind noalias writable sret(%struct.ODEResult) align 8 %0, ptr noundef %1, double noundef %2, double noundef %3, ptr noundef %4, i64 noundef %5, double noundef %6, ptr noundef %7) #1 !dbg !3703 {
  %9 = alloca ptr, align 8
  %10 = alloca double, align 8
  %11 = alloca double, align 8
  %12 = alloca ptr, align 8
  %13 = alloca i64, align 8
  %14 = alloca double, align 8
  %15 = alloca ptr, align 8
  %16 = alloca i64, align 8
  %17 = alloca ptr, align 8
  %18 = alloca ptr, align 8
  %19 = alloca ptr, align 8
  %20 = alloca ptr, align 8
  %21 = alloca ptr, align 8
  %22 = alloca double, align 8
  %23 = alloca i64, align 8
  %24 = alloca i64, align 8
  %25 = alloca i64, align 8
  %26 = alloca i64, align 8
  %27 = alloca i64, align 8
  store ptr %1, ptr %9, align 8
    #dbg_declare(ptr %9, !3718, !DIExpression(), !3719)
  store double %2, ptr %10, align 8
    #dbg_declare(ptr %10, !3720, !DIExpression(), !3721)
  store double %3, ptr %11, align 8
    #dbg_declare(ptr %11, !3722, !DIExpression(), !3723)
  store ptr %4, ptr %12, align 8
    #dbg_declare(ptr %12, !3724, !DIExpression(), !3725)
  store i64 %5, ptr %13, align 8
    #dbg_declare(ptr %13, !3726, !DIExpression(), !3727)
  store double %6, ptr %14, align 8
    #dbg_declare(ptr %14, !3728, !DIExpression(), !3729)
  store ptr %7, ptr %15, align 8
    #dbg_declare(ptr %15, !3730, !DIExpression(), !3731)
    #dbg_declare(ptr %0, !3732, !DIExpression(), !3733)
  %28 = load i64, ptr %13, align 8, !dbg !3734
  %29 = getelementptr inbounds nuw %struct.ODEResult, ptr %0, i32 0, i32 4, !dbg !3735
  store i64 %28, ptr %29, align 8, !dbg !3736
  %30 = load double, ptr %11, align 8, !dbg !3737
  %31 = load double, ptr %10, align 8, !dbg !3738
  %32 = fsub double %30, %31, !dbg !3739
  %33 = load double, ptr %14, align 8, !dbg !3740
  %34 = fdiv double %32, %33, !dbg !3741
  %35 = fptoui double %34 to i64, !dbg !3742
  %36 = add i64 %35, 1, !dbg !3743
  %37 = getelementptr inbounds nuw %struct.ODEResult, ptr %0, i32 0, i32 3, !dbg !3744
  store i64 %36, ptr %37, align 8, !dbg !3745
  %38 = load i64, ptr %13, align 8, !dbg !3746
  %39 = mul i64 %38, 8, !dbg !3747
  %40 = call noalias ptr @malloc(i64 noundef %39) #14, !dbg !3748
  %41 = getelementptr inbounds nuw %struct.ODEResult, ptr %0, i32 0, i32 0, !dbg !3749
  store ptr %40, ptr %41, align 8, !dbg !3750
  %42 = getelementptr inbounds nuw %struct.ODEResult, ptr %0, i32 0, i32 3, !dbg !3751
  %43 = load i64, ptr %42, align 8, !dbg !3751
  %44 = mul i64 %43, 8, !dbg !3752
  %45 = call noalias ptr @malloc(i64 noundef %44) #14, !dbg !3753
  %46 = getelementptr inbounds nuw %struct.ODEResult, ptr %0, i32 0, i32 1, !dbg !3754
  store ptr %45, ptr %46, align 8, !dbg !3755
  %47 = getelementptr inbounds nuw %struct.ODEResult, ptr %0, i32 0, i32 3, !dbg !3756
  %48 = load i64, ptr %47, align 8, !dbg !3756
  %49 = mul i64 %48, 8, !dbg !3757
  %50 = call noalias ptr @malloc(i64 noundef %49) #14, !dbg !3758
  %51 = getelementptr inbounds nuw %struct.ODEResult, ptr %0, i32 0, i32 2, !dbg !3759
  store ptr %50, ptr %51, align 8, !dbg !3760
  %52 = getelementptr inbounds nuw %struct.ODEResult, ptr %0, i32 0, i32 5, !dbg !3761
  store i32 0, ptr %52, align 8, !dbg !3762
    #dbg_declare(ptr %16, !3763, !DIExpression(), !3765)
  store i64 0, ptr %16, align 8, !dbg !3765
  br label %53, !dbg !3766

53:                                               ; preds = %66, %8
  %54 = load i64, ptr %16, align 8, !dbg !3767
  %55 = getelementptr inbounds nuw %struct.ODEResult, ptr %0, i32 0, i32 3, !dbg !3769
  %56 = load i64, ptr %55, align 8, !dbg !3769
  %57 = icmp ult i64 %54, %56, !dbg !3770
  br i1 %57, label %58, label %69, !dbg !3771

58:                                               ; preds = %53
  %59 = load i64, ptr %13, align 8, !dbg !3772
  %60 = mul i64 %59, 8, !dbg !3774
  %61 = call noalias ptr @malloc(i64 noundef %60) #14, !dbg !3775
  %62 = getelementptr inbounds nuw %struct.ODEResult, ptr %0, i32 0, i32 2, !dbg !3776
  %63 = load ptr, ptr %62, align 8, !dbg !3776
  %64 = load i64, ptr %16, align 8, !dbg !3777
  %65 = getelementptr inbounds nuw ptr, ptr %63, i64 %64, !dbg !3778
  store ptr %61, ptr %65, align 8, !dbg !3779
  br label %66, !dbg !3780

66:                                               ; preds = %58
  %67 = load i64, ptr %16, align 8, !dbg !3781
  %68 = add i64 %67, 1, !dbg !3781
  store i64 %68, ptr %16, align 8, !dbg !3781
  br label %53, !dbg !3782, !llvm.loop !3783

69:                                               ; preds = %53
  %70 = getelementptr inbounds nuw %struct.ODEResult, ptr %0, i32 0, i32 0, !dbg !3785
  %71 = load ptr, ptr %70, align 8, !dbg !3785
  %72 = load ptr, ptr %12, align 8, !dbg !3786
  %73 = load i64, ptr %13, align 8, !dbg !3787
  call void @vector_copy(ptr noundef %71, ptr noundef %72, i64 noundef %73), !dbg !3788
    #dbg_declare(ptr %17, !3789, !DIExpression(), !3790)
  %74 = load i64, ptr %13, align 8, !dbg !3791
  %75 = mul i64 %74, 8, !dbg !3792
  %76 = call noalias ptr @malloc(i64 noundef %75) #14, !dbg !3793
  store ptr %76, ptr %17, align 8, !dbg !3790
    #dbg_declare(ptr %18, !3794, !DIExpression(), !3795)
  %77 = load i64, ptr %13, align 8, !dbg !3796
  %78 = mul i64 %77, 8, !dbg !3797
  %79 = call noalias ptr @malloc(i64 noundef %78) #14, !dbg !3798
  store ptr %79, ptr %18, align 8, !dbg !3795
    #dbg_declare(ptr %19, !3799, !DIExpression(), !3800)
  %80 = load i64, ptr %13, align 8, !dbg !3801
  %81 = mul i64 %80, 8, !dbg !3802
  %82 = call noalias ptr @malloc(i64 noundef %81) #14, !dbg !3803
  store ptr %82, ptr %19, align 8, !dbg !3800
    #dbg_declare(ptr %20, !3804, !DIExpression(), !3805)
  %83 = load i64, ptr %13, align 8, !dbg !3806
  %84 = mul i64 %83, 8, !dbg !3807
  %85 = call noalias ptr @malloc(i64 noundef %84) #14, !dbg !3808
  store ptr %85, ptr %20, align 8, !dbg !3805
    #dbg_declare(ptr %21, !3809, !DIExpression(), !3810)
  %86 = load i64, ptr %13, align 8, !dbg !3811
  %87 = mul i64 %86, 8, !dbg !3812
  %88 = call noalias ptr @malloc(i64 noundef %87) #14, !dbg !3813
  store ptr %88, ptr %21, align 8, !dbg !3810
    #dbg_declare(ptr %22, !3814, !DIExpression(), !3815)
  %89 = load double, ptr %10, align 8, !dbg !3816
  store double %89, ptr %22, align 8, !dbg !3815
    #dbg_declare(ptr %23, !3817, !DIExpression(), !3819)
  store i64 0, ptr %23, align 8, !dbg !3819
  br label %90, !dbg !3820

90:                                               ; preds = %257, %69
  %91 = load i64, ptr %23, align 8, !dbg !3821
  %92 = getelementptr inbounds nuw %struct.ODEResult, ptr %0, i32 0, i32 3, !dbg !3823
  %93 = load i64, ptr %92, align 8, !dbg !3823
  %94 = icmp ult i64 %91, %93, !dbg !3824
  br i1 %94, label %95, label %260, !dbg !3825

95:                                               ; preds = %90
  %96 = load double, ptr %22, align 8, !dbg !3826
  %97 = getelementptr inbounds nuw %struct.ODEResult, ptr %0, i32 0, i32 1, !dbg !3828
  %98 = load ptr, ptr %97, align 8, !dbg !3828
  %99 = load i64, ptr %23, align 8, !dbg !3829
  %100 = getelementptr inbounds nuw double, ptr %98, i64 %99, !dbg !3830
  store double %96, ptr %100, align 8, !dbg !3831
  %101 = getelementptr inbounds nuw %struct.ODEResult, ptr %0, i32 0, i32 2, !dbg !3832
  %102 = load ptr, ptr %101, align 8, !dbg !3832
  %103 = load i64, ptr %23, align 8, !dbg !3833
  %104 = getelementptr inbounds nuw ptr, ptr %102, i64 %103, !dbg !3834
  %105 = load ptr, ptr %104, align 8, !dbg !3834
  %106 = getelementptr inbounds nuw %struct.ODEResult, ptr %0, i32 0, i32 0, !dbg !3835
  %107 = load ptr, ptr %106, align 8, !dbg !3835
  %108 = load i64, ptr %13, align 8, !dbg !3836
  call void @vector_copy(ptr noundef %105, ptr noundef %107, i64 noundef %108), !dbg !3837
  %109 = load i64, ptr %23, align 8, !dbg !3838
  %110 = getelementptr inbounds nuw %struct.ODEResult, ptr %0, i32 0, i32 3, !dbg !3840
  %111 = load i64, ptr %110, align 8, !dbg !3840
  %112 = sub i64 %111, 1, !dbg !3841
  %113 = icmp ult i64 %109, %112, !dbg !3842
  br i1 %113, label %114, label %256, !dbg !3842

114:                                              ; preds = %95
  %115 = load ptr, ptr %9, align 8, !dbg !3843
  %116 = load double, ptr %22, align 8, !dbg !3845
  %117 = getelementptr inbounds nuw %struct.ODEResult, ptr %0, i32 0, i32 0, !dbg !3846
  %118 = load ptr, ptr %117, align 8, !dbg !3846
  %119 = load ptr, ptr %17, align 8, !dbg !3847
  %120 = load i64, ptr %13, align 8, !dbg !3848
  %121 = load ptr, ptr %15, align 8, !dbg !3849
  call void %115(double noundef %116, ptr noundef %118, ptr noundef %119, i64 noundef %120, ptr noundef %121), !dbg !3843
    #dbg_declare(ptr %24, !3850, !DIExpression(), !3852)
  store i64 0, ptr %24, align 8, !dbg !3852
  br label %122, !dbg !3853

122:                                              ; preds = %142, %114
  %123 = load i64, ptr %24, align 8, !dbg !3854
  %124 = load i64, ptr %13, align 8, !dbg !3856
  %125 = icmp ult i64 %123, %124, !dbg !3857
  br i1 %125, label %126, label %145, !dbg !3858

126:                                              ; preds = %122
  %127 = getelementptr inbounds nuw %struct.ODEResult, ptr %0, i32 0, i32 0, !dbg !3859
  %128 = load ptr, ptr %127, align 8, !dbg !3859
  %129 = load i64, ptr %24, align 8, !dbg !3861
  %130 = getelementptr inbounds nuw double, ptr %128, i64 %129, !dbg !3862
  %131 = load double, ptr %130, align 8, !dbg !3862
  %132 = load double, ptr %14, align 8, !dbg !3863
  %133 = fmul double 5.000000e-01, %132, !dbg !3864
  %134 = load ptr, ptr %17, align 8, !dbg !3865
  %135 = load i64, ptr %24, align 8, !dbg !3866
  %136 = getelementptr inbounds nuw double, ptr %134, i64 %135, !dbg !3865
  %137 = load double, ptr %136, align 8, !dbg !3865
  %138 = call double @llvm.fmuladd.f64(double %133, double %137, double %131), !dbg !3867
  %139 = load ptr, ptr %21, align 8, !dbg !3868
  %140 = load i64, ptr %24, align 8, !dbg !3869
  %141 = getelementptr inbounds nuw double, ptr %139, i64 %140, !dbg !3868
  store double %138, ptr %141, align 8, !dbg !3870
  br label %142, !dbg !3871

142:                                              ; preds = %126
  %143 = load i64, ptr %24, align 8, !dbg !3872
  %144 = add i64 %143, 1, !dbg !3872
  store i64 %144, ptr %24, align 8, !dbg !3872
  br label %122, !dbg !3873, !llvm.loop !3874

145:                                              ; preds = %122
  %146 = load ptr, ptr %9, align 8, !dbg !3876
  %147 = load double, ptr %22, align 8, !dbg !3877
  %148 = load double, ptr %14, align 8, !dbg !3878
  %149 = call double @llvm.fmuladd.f64(double 5.000000e-01, double %148, double %147), !dbg !3879
  %150 = load ptr, ptr %21, align 8, !dbg !3880
  %151 = load ptr, ptr %18, align 8, !dbg !3881
  %152 = load i64, ptr %13, align 8, !dbg !3882
  %153 = load ptr, ptr %15, align 8, !dbg !3883
  call void %146(double noundef %149, ptr noundef %150, ptr noundef %151, i64 noundef %152, ptr noundef %153), !dbg !3876
    #dbg_declare(ptr %25, !3884, !DIExpression(), !3886)
  store i64 0, ptr %25, align 8, !dbg !3886
  br label %154, !dbg !3887

154:                                              ; preds = %174, %145
  %155 = load i64, ptr %25, align 8, !dbg !3888
  %156 = load i64, ptr %13, align 8, !dbg !3890
  %157 = icmp ult i64 %155, %156, !dbg !3891
  br i1 %157, label %158, label %177, !dbg !3892

158:                                              ; preds = %154
  %159 = getelementptr inbounds nuw %struct.ODEResult, ptr %0, i32 0, i32 0, !dbg !3893
  %160 = load ptr, ptr %159, align 8, !dbg !3893
  %161 = load i64, ptr %25, align 8, !dbg !3895
  %162 = getelementptr inbounds nuw double, ptr %160, i64 %161, !dbg !3896
  %163 = load double, ptr %162, align 8, !dbg !3896
  %164 = load double, ptr %14, align 8, !dbg !3897
  %165 = fmul double 5.000000e-01, %164, !dbg !3898
  %166 = load ptr, ptr %18, align 8, !dbg !3899
  %167 = load i64, ptr %25, align 8, !dbg !3900
  %168 = getelementptr inbounds nuw double, ptr %166, i64 %167, !dbg !3899
  %169 = load double, ptr %168, align 8, !dbg !3899
  %170 = call double @llvm.fmuladd.f64(double %165, double %169, double %163), !dbg !3901
  %171 = load ptr, ptr %21, align 8, !dbg !3902
  %172 = load i64, ptr %25, align 8, !dbg !3903
  %173 = getelementptr inbounds nuw double, ptr %171, i64 %172, !dbg !3902
  store double %170, ptr %173, align 8, !dbg !3904
  br label %174, !dbg !3905

174:                                              ; preds = %158
  %175 = load i64, ptr %25, align 8, !dbg !3906
  %176 = add i64 %175, 1, !dbg !3906
  store i64 %176, ptr %25, align 8, !dbg !3906
  br label %154, !dbg !3907, !llvm.loop !3908

177:                                              ; preds = %154
  %178 = load ptr, ptr %9, align 8, !dbg !3910
  %179 = load double, ptr %22, align 8, !dbg !3911
  %180 = load double, ptr %14, align 8, !dbg !3912
  %181 = call double @llvm.fmuladd.f64(double 5.000000e-01, double %180, double %179), !dbg !3913
  %182 = load ptr, ptr %21, align 8, !dbg !3914
  %183 = load ptr, ptr %19, align 8, !dbg !3915
  %184 = load i64, ptr %13, align 8, !dbg !3916
  %185 = load ptr, ptr %15, align 8, !dbg !3917
  call void %178(double noundef %181, ptr noundef %182, ptr noundef %183, i64 noundef %184, ptr noundef %185), !dbg !3910
    #dbg_declare(ptr %26, !3918, !DIExpression(), !3920)
  store i64 0, ptr %26, align 8, !dbg !3920
  br label %186, !dbg !3921

186:                                              ; preds = %205, %177
  %187 = load i64, ptr %26, align 8, !dbg !3922
  %188 = load i64, ptr %13, align 8, !dbg !3924
  %189 = icmp ult i64 %187, %188, !dbg !3925
  br i1 %189, label %190, label %208, !dbg !3926

190:                                              ; preds = %186
  %191 = getelementptr inbounds nuw %struct.ODEResult, ptr %0, i32 0, i32 0, !dbg !3927
  %192 = load ptr, ptr %191, align 8, !dbg !3927
  %193 = load i64, ptr %26, align 8, !dbg !3929
  %194 = getelementptr inbounds nuw double, ptr %192, i64 %193, !dbg !3930
  %195 = load double, ptr %194, align 8, !dbg !3930
  %196 = load double, ptr %14, align 8, !dbg !3931
  %197 = load ptr, ptr %19, align 8, !dbg !3932
  %198 = load i64, ptr %26, align 8, !dbg !3933
  %199 = getelementptr inbounds nuw double, ptr %197, i64 %198, !dbg !3932
  %200 = load double, ptr %199, align 8, !dbg !3932
  %201 = call double @llvm.fmuladd.f64(double %196, double %200, double %195), !dbg !3934
  %202 = load ptr, ptr %21, align 8, !dbg !3935
  %203 = load i64, ptr %26, align 8, !dbg !3936
  %204 = getelementptr inbounds nuw double, ptr %202, i64 %203, !dbg !3935
  store double %201, ptr %204, align 8, !dbg !3937
  br label %205, !dbg !3938

205:                                              ; preds = %190
  %206 = load i64, ptr %26, align 8, !dbg !3939
  %207 = add i64 %206, 1, !dbg !3939
  store i64 %207, ptr %26, align 8, !dbg !3939
  br label %186, !dbg !3940, !llvm.loop !3941

208:                                              ; preds = %186
  %209 = load ptr, ptr %9, align 8, !dbg !3943
  %210 = load double, ptr %22, align 8, !dbg !3944
  %211 = load double, ptr %14, align 8, !dbg !3945
  %212 = fadd double %210, %211, !dbg !3946
  %213 = load ptr, ptr %21, align 8, !dbg !3947
  %214 = load ptr, ptr %20, align 8, !dbg !3948
  %215 = load i64, ptr %13, align 8, !dbg !3949
  %216 = load ptr, ptr %15, align 8, !dbg !3950
  call void %209(double noundef %212, ptr noundef %213, ptr noundef %214, i64 noundef %215, ptr noundef %216), !dbg !3943
    #dbg_declare(ptr %27, !3951, !DIExpression(), !3953)
  store i64 0, ptr %27, align 8, !dbg !3953
  br label %217, !dbg !3954

217:                                              ; preds = %249, %208
  %218 = load i64, ptr %27, align 8, !dbg !3955
  %219 = load i64, ptr %13, align 8, !dbg !3957
  %220 = icmp ult i64 %218, %219, !dbg !3958
  br i1 %220, label %221, label %252, !dbg !3959

221:                                              ; preds = %217
  %222 = load double, ptr %14, align 8, !dbg !3960
  %223 = fdiv double %222, 6.000000e+00, !dbg !3962
  %224 = load ptr, ptr %17, align 8, !dbg !3963
  %225 = load i64, ptr %27, align 8, !dbg !3964
  %226 = getelementptr inbounds nuw double, ptr %224, i64 %225, !dbg !3963
  %227 = load double, ptr %226, align 8, !dbg !3963
  %228 = load ptr, ptr %18, align 8, !dbg !3965
  %229 = load i64, ptr %27, align 8, !dbg !3966
  %230 = getelementptr inbounds nuw double, ptr %228, i64 %229, !dbg !3965
  %231 = load double, ptr %230, align 8, !dbg !3965
  %232 = call double @llvm.fmuladd.f64(double 2.000000e+00, double %231, double %227), !dbg !3967
  %233 = load ptr, ptr %19, align 8, !dbg !3968
  %234 = load i64, ptr %27, align 8, !dbg !3969
  %235 = getelementptr inbounds nuw double, ptr %233, i64 %234, !dbg !3968
  %236 = load double, ptr %235, align 8, !dbg !3968
  %237 = call double @llvm.fmuladd.f64(double 2.000000e+00, double %236, double %232), !dbg !3970
  %238 = load ptr, ptr %20, align 8, !dbg !3971
  %239 = load i64, ptr %27, align 8, !dbg !3972
  %240 = getelementptr inbounds nuw double, ptr %238, i64 %239, !dbg !3971
  %241 = load double, ptr %240, align 8, !dbg !3971
  %242 = fadd double %237, %241, !dbg !3973
  %243 = getelementptr inbounds nuw %struct.ODEResult, ptr %0, i32 0, i32 0, !dbg !3974
  %244 = load ptr, ptr %243, align 8, !dbg !3974
  %245 = load i64, ptr %27, align 8, !dbg !3975
  %246 = getelementptr inbounds nuw double, ptr %244, i64 %245, !dbg !3976
  %247 = load double, ptr %246, align 8, !dbg !3977
  %248 = call double @llvm.fmuladd.f64(double %223, double %242, double %247), !dbg !3977
  store double %248, ptr %246, align 8, !dbg !3977
  br label %249, !dbg !3978

249:                                              ; preds = %221
  %250 = load i64, ptr %27, align 8, !dbg !3979
  %251 = add i64 %250, 1, !dbg !3979
  store i64 %251, ptr %27, align 8, !dbg !3979
  br label %217, !dbg !3980, !llvm.loop !3981

252:                                              ; preds = %217
  %253 = load double, ptr %14, align 8, !dbg !3983
  %254 = load double, ptr %22, align 8, !dbg !3984
  %255 = fadd double %254, %253, !dbg !3984
  store double %255, ptr %22, align 8, !dbg !3984
  br label %256, !dbg !3985

256:                                              ; preds = %252, %95
  br label %257, !dbg !3986

257:                                              ; preds = %256
  %258 = load i64, ptr %23, align 8, !dbg !3987
  %259 = add i64 %258, 1, !dbg !3987
  store i64 %259, ptr %23, align 8, !dbg !3987
  br label %90, !dbg !3988, !llvm.loop !3989

260:                                              ; preds = %90
  %261 = load ptr, ptr %17, align 8, !dbg !3991
  call void @free(ptr noundef %261) #13, !dbg !3992
  %262 = load ptr, ptr %18, align 8, !dbg !3993
  call void @free(ptr noundef %262) #13, !dbg !3994
  %263 = load ptr, ptr %19, align 8, !dbg !3995
  call void @free(ptr noundef %263) #13, !dbg !3996
  %264 = load ptr, ptr %20, align 8, !dbg !3997
  call void @free(ptr noundef %264) #13, !dbg !3998
  %265 = load ptr, ptr %21, align 8, !dbg !3999
  call void @free(ptr noundef %265) #13, !dbg !4000
  ret void, !dbg !4001
}

; Function Attrs: mustprogress noinline optnone sspstrong uwtable
define void @solve_ode_adaptive(ptr dead_on_unwind noalias writable sret(%struct.ODEResult) align 8 %0, ptr noundef %1, double noundef %2, double noundef %3, ptr noundef %4, i64 noundef %5, double noundef %6, ptr noundef %7, ptr noundef %8) #1 !dbg !4002 {
  %10 = alloca ptr, align 8
  %11 = alloca double, align 8
  %12 = alloca double, align 8
  %13 = alloca ptr, align 8
  %14 = alloca i64, align 8
  %15 = alloca double, align 8
  %16 = alloca ptr, align 8
  %17 = alloca ptr, align 8
  store ptr %1, ptr %10, align 8
    #dbg_declare(ptr %10, !4009, !DIExpression(), !4010)
  store double %2, ptr %11, align 8
    #dbg_declare(ptr %11, !4011, !DIExpression(), !4012)
  store double %3, ptr %12, align 8
    #dbg_declare(ptr %12, !4013, !DIExpression(), !4014)
  store ptr %4, ptr %13, align 8
    #dbg_declare(ptr %13, !4015, !DIExpression(), !4016)
  store i64 %5, ptr %14, align 8
    #dbg_declare(ptr %14, !4017, !DIExpression(), !4018)
  store double %6, ptr %15, align 8
    #dbg_declare(ptr %15, !4019, !DIExpression(), !4020)
  store ptr %7, ptr %16, align 8
    #dbg_declare(ptr %16, !4021, !DIExpression(), !4022)
  store ptr %8, ptr %17, align 8
    #dbg_declare(ptr %17, !4023, !DIExpression(), !4024)
  %18 = load ptr, ptr %10, align 8, !dbg !4025
  %19 = load double, ptr %11, align 8, !dbg !4026
  %20 = load double, ptr %12, align 8, !dbg !4027
  %21 = load ptr, ptr %13, align 8, !dbg !4028
  %22 = load i64, ptr %14, align 8, !dbg !4029
  %23 = load ptr, ptr %17, align 8, !dbg !4030
  call void @solve_ode_rk4(ptr dead_on_unwind writable sret(%struct.ODEResult) align 8 %0, ptr noundef %18, double noundef %19, double noundef %20, ptr noundef %21, i64 noundef %22, double noundef 1.000000e-02, ptr noundef %23), !dbg !4031
  ret void, !dbg !4032
}

; Function Attrs: mustprogress noinline nounwind optnone sspstrong uwtable
define void @ode_result_destroy(ptr noundef %0) #2 !dbg !4033 {
  %2 = alloca ptr, align 8
  %3 = alloca i64, align 8
  store ptr %0, ptr %2, align 8
    #dbg_declare(ptr %2, !4037, !DIExpression(), !4038)
  %4 = load ptr, ptr %2, align 8, !dbg !4039
  %5 = icmp ne ptr %4, null, !dbg !4039
  br i1 %5, label %6, label %33, !dbg !4039

6:                                                ; preds = %1
  %7 = load ptr, ptr %2, align 8, !dbg !4041
  %8 = getelementptr inbounds nuw %struct.ODEResult, ptr %7, i32 0, i32 0, !dbg !4043
  %9 = load ptr, ptr %8, align 8, !dbg !4043
  call void @free(ptr noundef %9) #13, !dbg !4044
  %10 = load ptr, ptr %2, align 8, !dbg !4045
  %11 = getelementptr inbounds nuw %struct.ODEResult, ptr %10, i32 0, i32 1, !dbg !4046
  %12 = load ptr, ptr %11, align 8, !dbg !4046
  call void @free(ptr noundef %12) #13, !dbg !4047
    #dbg_declare(ptr %3, !4048, !DIExpression(), !4050)
  store i64 0, ptr %3, align 8, !dbg !4050
  br label %13, !dbg !4051

13:                                               ; preds = %26, %6
  %14 = load i64, ptr %3, align 8, !dbg !4052
  %15 = load ptr, ptr %2, align 8, !dbg !4054
  %16 = getelementptr inbounds nuw %struct.ODEResult, ptr %15, i32 0, i32 3, !dbg !4055
  %17 = load i64, ptr %16, align 8, !dbg !4055
  %18 = icmp ult i64 %14, %17, !dbg !4056
  br i1 %18, label %19, label %29, !dbg !4057

19:                                               ; preds = %13
  %20 = load ptr, ptr %2, align 8, !dbg !4058
  %21 = getelementptr inbounds nuw %struct.ODEResult, ptr %20, i32 0, i32 2, !dbg !4060
  %22 = load ptr, ptr %21, align 8, !dbg !4060
  %23 = load i64, ptr %3, align 8, !dbg !4061
  %24 = getelementptr inbounds nuw ptr, ptr %22, i64 %23, !dbg !4058
  %25 = load ptr, ptr %24, align 8, !dbg !4058
  call void @free(ptr noundef %25) #13, !dbg !4062
  br label %26, !dbg !4063

26:                                               ; preds = %19
  %27 = load i64, ptr %3, align 8, !dbg !4064
  %28 = add i64 %27, 1, !dbg !4064
  store i64 %28, ptr %3, align 8, !dbg !4064
  br label %13, !dbg !4065, !llvm.loop !4066

29:                                               ; preds = %13
  %30 = load ptr, ptr %2, align 8, !dbg !4068
  %31 = getelementptr inbounds nuw %struct.ODEResult, ptr %30, i32 0, i32 2, !dbg !4069
  %32 = load ptr, ptr %31, align 8, !dbg !4069
  call void @free(ptr noundef %32) #13, !dbg !4070
  br label %33, !dbg !4071

33:                                               ; preds = %29, %1
  ret void, !dbg !4072
}

; Function Attrs: mustprogress noinline nounwind optnone sspstrong uwtable
define void @compute_fft(ptr dead_on_unwind noalias writable sret(%struct.FFTResult) align 8 %0, ptr noundef %1, i64 noundef %2) #2 !dbg !4073 {
  %4 = alloca ptr, align 8
  %5 = alloca i64, align 8
  %6 = alloca i64, align 8
  %7 = alloca i64, align 8
  %8 = alloca double, align 8
  store ptr %1, ptr %4, align 8
    #dbg_declare(ptr %4, !4081, !DIExpression(), !4082)
  store i64 %2, ptr %5, align 8
    #dbg_declare(ptr %5, !4083, !DIExpression(), !4084)
    #dbg_declare(ptr %0, !4085, !DIExpression(), !4086)
  %9 = load i64, ptr %5, align 8, !dbg !4087
  %10 = getelementptr inbounds nuw %struct.FFTResult, ptr %0, i32 0, i32 2, !dbg !4088
  store i64 %9, ptr %10, align 8, !dbg !4089
  %11 = load i64, ptr %5, align 8, !dbg !4090
  %12 = mul i64 %11, 8, !dbg !4091
  %13 = call noalias ptr @malloc(i64 noundef %12) #14, !dbg !4092
  %14 = getelementptr inbounds nuw %struct.FFTResult, ptr %0, i32 0, i32 0, !dbg !4093
  store ptr %13, ptr %14, align 8, !dbg !4094
  %15 = load i64, ptr %5, align 8, !dbg !4095
  %16 = mul i64 %15, 8, !dbg !4096
  %17 = call noalias ptr @malloc(i64 noundef %16) #14, !dbg !4097
  %18 = getelementptr inbounds nuw %struct.FFTResult, ptr %0, i32 0, i32 1, !dbg !4098
  store ptr %17, ptr %18, align 8, !dbg !4099
    #dbg_declare(ptr %6, !4100, !DIExpression(), !4102)
  store i64 0, ptr %6, align 8, !dbg !4102
  br label %19, !dbg !4103

19:                                               ; preds = %74, %3
  %20 = load i64, ptr %6, align 8, !dbg !4104
  %21 = load i64, ptr %5, align 8, !dbg !4106
  %22 = icmp ult i64 %20, %21, !dbg !4107
  br i1 %22, label %23, label %77, !dbg !4108

23:                                               ; preds = %19
  %24 = getelementptr inbounds nuw %struct.FFTResult, ptr %0, i32 0, i32 0, !dbg !4109
  %25 = load ptr, ptr %24, align 8, !dbg !4109
  %26 = load i64, ptr %6, align 8, !dbg !4111
  %27 = getelementptr inbounds nuw double, ptr %25, i64 %26, !dbg !4112
  store double 0.000000e+00, ptr %27, align 8, !dbg !4113
  %28 = getelementptr inbounds nuw %struct.FFTResult, ptr %0, i32 0, i32 1, !dbg !4114
  %29 = load ptr, ptr %28, align 8, !dbg !4114
  %30 = load i64, ptr %6, align 8, !dbg !4115
  %31 = getelementptr inbounds nuw double, ptr %29, i64 %30, !dbg !4116
  store double 0.000000e+00, ptr %31, align 8, !dbg !4117
    #dbg_declare(ptr %7, !4118, !DIExpression(), !4120)
  store i64 0, ptr %7, align 8, !dbg !4120
  br label %32, !dbg !4121

32:                                               ; preds = %70, %23
  %33 = load i64, ptr %7, align 8, !dbg !4122
  %34 = load i64, ptr %5, align 8, !dbg !4124
  %35 = icmp ult i64 %33, %34, !dbg !4125
  br i1 %35, label %36, label %73, !dbg !4126

36:                                               ; preds = %32
    #dbg_declare(ptr %8, !4127, !DIExpression(), !4129)
  %37 = load i64, ptr %6, align 8, !dbg !4130
  %38 = uitofp i64 %37 to double, !dbg !4130
  %39 = fmul double 0xC01921FB54442D18, %38, !dbg !4131
  %40 = load i64, ptr %7, align 8, !dbg !4132
  %41 = uitofp i64 %40 to double, !dbg !4132
  %42 = fmul double %39, %41, !dbg !4133
  %43 = load i64, ptr %5, align 8, !dbg !4134
  %44 = uitofp i64 %43 to double, !dbg !4134
  %45 = fdiv double %42, %44, !dbg !4135
  store double %45, ptr %8, align 8, !dbg !4129
  %46 = load ptr, ptr %4, align 8, !dbg !4136
  %47 = load i64, ptr %7, align 8, !dbg !4137
  %48 = getelementptr inbounds nuw double, ptr %46, i64 %47, !dbg !4136
  %49 = load double, ptr %48, align 8, !dbg !4136
  %50 = load double, ptr %8, align 8, !dbg !4138
  %51 = call double @cos(double noundef %50) #13, !dbg !4139
  %52 = getelementptr inbounds nuw %struct.FFTResult, ptr %0, i32 0, i32 0, !dbg !4140
  %53 = load ptr, ptr %52, align 8, !dbg !4140
  %54 = load i64, ptr %6, align 8, !dbg !4141
  %55 = getelementptr inbounds nuw double, ptr %53, i64 %54, !dbg !4142
  %56 = load double, ptr %55, align 8, !dbg !4143
  %57 = call double @llvm.fmuladd.f64(double %49, double %51, double %56), !dbg !4143
  store double %57, ptr %55, align 8, !dbg !4143
  %58 = load ptr, ptr %4, align 8, !dbg !4144
  %59 = load i64, ptr %7, align 8, !dbg !4145
  %60 = getelementptr inbounds nuw double, ptr %58, i64 %59, !dbg !4144
  %61 = load double, ptr %60, align 8, !dbg !4144
  %62 = load double, ptr %8, align 8, !dbg !4146
  %63 = call double @sin(double noundef %62) #13, !dbg !4147
  %64 = getelementptr inbounds nuw %struct.FFTResult, ptr %0, i32 0, i32 1, !dbg !4148
  %65 = load ptr, ptr %64, align 8, !dbg !4148
  %66 = load i64, ptr %6, align 8, !dbg !4149
  %67 = getelementptr inbounds nuw double, ptr %65, i64 %66, !dbg !4150
  %68 = load double, ptr %67, align 8, !dbg !4151
  %69 = call double @llvm.fmuladd.f64(double %61, double %63, double %68), !dbg !4151
  store double %69, ptr %67, align 8, !dbg !4151
  br label %70, !dbg !4152

70:                                               ; preds = %36
  %71 = load i64, ptr %7, align 8, !dbg !4153
  %72 = add i64 %71, 1, !dbg !4153
  store i64 %72, ptr %7, align 8, !dbg !4153
  br label %32, !dbg !4154, !llvm.loop !4155

73:                                               ; preds = %32
  br label %74, !dbg !4157

74:                                               ; preds = %73
  %75 = load i64, ptr %6, align 8, !dbg !4158
  %76 = add i64 %75, 1, !dbg !4158
  store i64 %76, ptr %6, align 8, !dbg !4158
  br label %19, !dbg !4159, !llvm.loop !4160

77:                                               ; preds = %19
  ret void, !dbg !4162
}

; Function Attrs: nounwind
declare double @cos(double noundef) #4

; Function Attrs: nounwind
declare double @sin(double noundef) #4

; Function Attrs: mustprogress noinline nounwind optnone sspstrong uwtable
define void @compute_ifft(ptr noundef %0, ptr noundef %1) #2 !dbg !4163 {
  %3 = alloca ptr, align 8
  %4 = alloca ptr, align 8
  %5 = alloca i64, align 8
  %6 = alloca i64, align 8
  %7 = alloca i64, align 8
  %8 = alloca double, align 8
  store ptr %0, ptr %3, align 8
    #dbg_declare(ptr %3, !4168, !DIExpression(), !4169)
  store ptr %1, ptr %4, align 8
    #dbg_declare(ptr %4, !4170, !DIExpression(), !4171)
    #dbg_declare(ptr %5, !4172, !DIExpression(), !4173)
  %9 = load ptr, ptr %3, align 8, !dbg !4174
  %10 = getelementptr inbounds nuw %struct.FFTResult, ptr %9, i32 0, i32 2, !dbg !4175
  %11 = load i64, ptr %10, align 8, !dbg !4175
  store i64 %11, ptr %5, align 8, !dbg !4173
    #dbg_declare(ptr %6, !4176, !DIExpression(), !4178)
  store i64 0, ptr %6, align 8, !dbg !4178
  br label %12, !dbg !4179

12:                                               ; preds = %69, %2
  %13 = load i64, ptr %6, align 8, !dbg !4180
  %14 = load i64, ptr %5, align 8, !dbg !4182
  %15 = icmp ult i64 %13, %14, !dbg !4183
  br i1 %15, label %16, label %72, !dbg !4184

16:                                               ; preds = %12
  %17 = load ptr, ptr %4, align 8, !dbg !4185
  %18 = load i64, ptr %6, align 8, !dbg !4187
  %19 = getelementptr inbounds nuw double, ptr %17, i64 %18, !dbg !4185
  store double 0.000000e+00, ptr %19, align 8, !dbg !4188
    #dbg_declare(ptr %7, !4189, !DIExpression(), !4191)
  store i64 0, ptr %7, align 8, !dbg !4191
  br label %20, !dbg !4192

20:                                               ; preds = %58, %16
  %21 = load i64, ptr %7, align 8, !dbg !4193
  %22 = load i64, ptr %5, align 8, !dbg !4195
  %23 = icmp ult i64 %21, %22, !dbg !4196
  br i1 %23, label %24, label %61, !dbg !4197

24:                                               ; preds = %20
    #dbg_declare(ptr %8, !4198, !DIExpression(), !4200)
  %25 = load i64, ptr %7, align 8, !dbg !4201
  %26 = uitofp i64 %25 to double, !dbg !4201
  %27 = fmul double 0x401921FB54442D18, %26, !dbg !4202
  %28 = load i64, ptr %6, align 8, !dbg !4203
  %29 = uitofp i64 %28 to double, !dbg !4203
  %30 = fmul double %27, %29, !dbg !4204
  %31 = load i64, ptr %5, align 8, !dbg !4205
  %32 = uitofp i64 %31 to double, !dbg !4205
  %33 = fdiv double %30, %32, !dbg !4206
  store double %33, ptr %8, align 8, !dbg !4200
  %34 = load ptr, ptr %3, align 8, !dbg !4207
  %35 = getelementptr inbounds nuw %struct.FFTResult, ptr %34, i32 0, i32 0, !dbg !4208
  %36 = load ptr, ptr %35, align 8, !dbg !4208
  %37 = load i64, ptr %7, align 8, !dbg !4209
  %38 = getelementptr inbounds nuw double, ptr %36, i64 %37, !dbg !4207
  %39 = load double, ptr %38, align 8, !dbg !4207
  %40 = load double, ptr %8, align 8, !dbg !4210
  %41 = call double @cos(double noundef %40) #13, !dbg !4211
  %42 = load ptr, ptr %3, align 8, !dbg !4212
  %43 = getelementptr inbounds nuw %struct.FFTResult, ptr %42, i32 0, i32 1, !dbg !4213
  %44 = load ptr, ptr %43, align 8, !dbg !4213
  %45 = load i64, ptr %7, align 8, !dbg !4214
  %46 = getelementptr inbounds nuw double, ptr %44, i64 %45, !dbg !4212
  %47 = load double, ptr %46, align 8, !dbg !4212
  %48 = load double, ptr %8, align 8, !dbg !4215
  %49 = call double @sin(double noundef %48) #13, !dbg !4216
  %50 = fmul double %47, %49, !dbg !4217
  %51 = fneg double %50, !dbg !4218
  %52 = call double @llvm.fmuladd.f64(double %39, double %41, double %51), !dbg !4218
  %53 = load ptr, ptr %4, align 8, !dbg !4219
  %54 = load i64, ptr %6, align 8, !dbg !4220
  %55 = getelementptr inbounds nuw double, ptr %53, i64 %54, !dbg !4219
  %56 = load double, ptr %55, align 8, !dbg !4221
  %57 = fadd double %56, %52, !dbg !4221
  store double %57, ptr %55, align 8, !dbg !4221
  br label %58, !dbg !4222

58:                                               ; preds = %24
  %59 = load i64, ptr %7, align 8, !dbg !4223
  %60 = add i64 %59, 1, !dbg !4223
  store i64 %60, ptr %7, align 8, !dbg !4223
  br label %20, !dbg !4224, !llvm.loop !4225

61:                                               ; preds = %20
  %62 = load i64, ptr %5, align 8, !dbg !4227
  %63 = uitofp i64 %62 to double, !dbg !4227
  %64 = load ptr, ptr %4, align 8, !dbg !4228
  %65 = load i64, ptr %6, align 8, !dbg !4229
  %66 = getelementptr inbounds nuw double, ptr %64, i64 %65, !dbg !4228
  %67 = load double, ptr %66, align 8, !dbg !4230
  %68 = fdiv double %67, %63, !dbg !4230
  store double %68, ptr %66, align 8, !dbg !4230
  br label %69, !dbg !4231

69:                                               ; preds = %61
  %70 = load i64, ptr %6, align 8, !dbg !4232
  %71 = add i64 %70, 1, !dbg !4232
  store i64 %71, ptr %6, align 8, !dbg !4232
  br label %12, !dbg !4233, !llvm.loop !4234

72:                                               ; preds = %12
  ret void, !dbg !4236
}

; Function Attrs: mustprogress noinline nounwind optnone sspstrong uwtable
define void @fft_result_destroy(ptr noundef %0) #2 !dbg !4237 {
  %2 = alloca ptr, align 8
  store ptr %0, ptr %2, align 8
    #dbg_declare(ptr %2, !4241, !DIExpression(), !4242)
  %3 = load ptr, ptr %2, align 8, !dbg !4243
  %4 = icmp ne ptr %3, null, !dbg !4243
  br i1 %4, label %5, label %12, !dbg !4243

5:                                                ; preds = %1
  %6 = load ptr, ptr %2, align 8, !dbg !4245
  %7 = getelementptr inbounds nuw %struct.FFTResult, ptr %6, i32 0, i32 0, !dbg !4247
  %8 = load ptr, ptr %7, align 8, !dbg !4247
  call void @free(ptr noundef %8) #13, !dbg !4248
  %9 = load ptr, ptr %2, align 8, !dbg !4249
  %10 = getelementptr inbounds nuw %struct.FFTResult, ptr %9, i32 0, i32 1, !dbg !4250
  %11 = load ptr, ptr %10, align 8, !dbg !4250
  call void @free(ptr noundef %11) #13, !dbg !4251
  br label %12, !dbg !4252

12:                                               ; preds = %5, %1
  ret void, !dbg !4253
}

; Function Attrs: mustprogress noinline nounwind optnone sspstrong uwtable
define void @convolve(ptr noundef %0, i64 noundef %1, ptr noundef %2, i64 noundef %3, ptr noundef %4) #2 !dbg !4254 {
  %6 = alloca ptr, align 8
  %7 = alloca i64, align 8
  %8 = alloca ptr, align 8
  %9 = alloca i64, align 8
  %10 = alloca ptr, align 8
  %11 = alloca i64, align 8
  %12 = alloca i64, align 8
  %13 = alloca i64, align 8
  store ptr %0, ptr %6, align 8
    #dbg_declare(ptr %6, !4257, !DIExpression(), !4258)
  store i64 %1, ptr %7, align 8
    #dbg_declare(ptr %7, !4259, !DIExpression(), !4260)
  store ptr %2, ptr %8, align 8
    #dbg_declare(ptr %8, !4261, !DIExpression(), !4262)
  store i64 %3, ptr %9, align 8
    #dbg_declare(ptr %9, !4263, !DIExpression(), !4264)
  store ptr %4, ptr %10, align 8
    #dbg_declare(ptr %10, !4265, !DIExpression(), !4266)
    #dbg_declare(ptr %11, !4267, !DIExpression(), !4268)
  %14 = load i64, ptr %7, align 8, !dbg !4269
  %15 = load i64, ptr %9, align 8, !dbg !4270
  %16 = add i64 %14, %15, !dbg !4271
  %17 = sub i64 %16, 1, !dbg !4272
  store i64 %17, ptr %11, align 8, !dbg !4268
    #dbg_declare(ptr %12, !4273, !DIExpression(), !4275)
  store i64 0, ptr %12, align 8, !dbg !4275
  br label %18, !dbg !4276

18:                                               ; preds = %61, %5
  %19 = load i64, ptr %12, align 8, !dbg !4277
  %20 = load i64, ptr %11, align 8, !dbg !4279
  %21 = icmp ult i64 %19, %20, !dbg !4280
  br i1 %21, label %22, label %64, !dbg !4281

22:                                               ; preds = %18
  %23 = load ptr, ptr %10, align 8, !dbg !4282
  %24 = load i64, ptr %12, align 8, !dbg !4284
  %25 = getelementptr inbounds nuw double, ptr %23, i64 %24, !dbg !4282
  store double 0.000000e+00, ptr %25, align 8, !dbg !4285
    #dbg_declare(ptr %13, !4286, !DIExpression(), !4288)
  store i64 0, ptr %13, align 8, !dbg !4288
  br label %26, !dbg !4289

26:                                               ; preds = %57, %22
  %27 = load i64, ptr %13, align 8, !dbg !4290
  %28 = load i64, ptr %9, align 8, !dbg !4292
  %29 = icmp ult i64 %27, %28, !dbg !4293
  br i1 %29, label %30, label %60, !dbg !4294

30:                                               ; preds = %26
  %31 = load i64, ptr %12, align 8, !dbg !4295
  %32 = load i64, ptr %13, align 8, !dbg !4298
  %33 = icmp uge i64 %31, %32, !dbg !4299
  br i1 %33, label %34, label %56, !dbg !4300

34:                                               ; preds = %30
  %35 = load i64, ptr %12, align 8, !dbg !4301
  %36 = load i64, ptr %13, align 8, !dbg !4302
  %37 = sub i64 %35, %36, !dbg !4303
  %38 = load i64, ptr %7, align 8, !dbg !4304
  %39 = icmp ult i64 %37, %38, !dbg !4305
  br i1 %39, label %40, label %56, !dbg !4300

40:                                               ; preds = %34
  %41 = load ptr, ptr %6, align 8, !dbg !4306
  %42 = load i64, ptr %12, align 8, !dbg !4308
  %43 = load i64, ptr %13, align 8, !dbg !4309
  %44 = sub i64 %42, %43, !dbg !4310
  %45 = getelementptr inbounds nuw double, ptr %41, i64 %44, !dbg !4306
  %46 = load double, ptr %45, align 8, !dbg !4306
  %47 = load ptr, ptr %8, align 8, !dbg !4311
  %48 = load i64, ptr %13, align 8, !dbg !4312
  %49 = getelementptr inbounds nuw double, ptr %47, i64 %48, !dbg !4311
  %50 = load double, ptr %49, align 8, !dbg !4311
  %51 = load ptr, ptr %10, align 8, !dbg !4313
  %52 = load i64, ptr %12, align 8, !dbg !4314
  %53 = getelementptr inbounds nuw double, ptr %51, i64 %52, !dbg !4313
  %54 = load double, ptr %53, align 8, !dbg !4315
  %55 = call double @llvm.fmuladd.f64(double %46, double %50, double %54), !dbg !4315
  store double %55, ptr %53, align 8, !dbg !4315
  br label %56, !dbg !4316

56:                                               ; preds = %40, %34, %30
  br label %57, !dbg !4317

57:                                               ; preds = %56
  %58 = load i64, ptr %13, align 8, !dbg !4318
  %59 = add i64 %58, 1, !dbg !4318
  store i64 %59, ptr %13, align 8, !dbg !4318
  br label %26, !dbg !4319, !llvm.loop !4320

60:                                               ; preds = %26
  br label %61, !dbg !4322

61:                                               ; preds = %60
  %62 = load i64, ptr %12, align 8, !dbg !4323
  %63 = add i64 %62, 1, !dbg !4323
  store i64 %63, ptr %12, align 8, !dbg !4323
  br label %18, !dbg !4324, !llvm.loop !4325

64:                                               ; preds = %18
  ret void, !dbg !4327
}

; Function Attrs: mustprogress noinline nounwind optnone sspstrong uwtable
define void @correlate(ptr noundef %0, ptr noundef %1, i64 noundef %2, ptr noundef %3) #2 !dbg !4328 {
  %5 = alloca ptr, align 8
  %6 = alloca ptr, align 8
  %7 = alloca i64, align 8
  %8 = alloca ptr, align 8
  %9 = alloca i64, align 8
  %10 = alloca i64, align 8
  store ptr %0, ptr %5, align 8
    #dbg_declare(ptr %5, !4331, !DIExpression(), !4332)
  store ptr %1, ptr %6, align 8
    #dbg_declare(ptr %6, !4333, !DIExpression(), !4334)
  store i64 %2, ptr %7, align 8
    #dbg_declare(ptr %7, !4335, !DIExpression(), !4336)
  store ptr %3, ptr %8, align 8
    #dbg_declare(ptr %8, !4337, !DIExpression(), !4338)
    #dbg_declare(ptr %9, !4339, !DIExpression(), !4341)
  store i64 0, ptr %9, align 8, !dbg !4341
  br label %11, !dbg !4342

11:                                               ; preds = %45, %4
  %12 = load i64, ptr %9, align 8, !dbg !4343
  %13 = load i64, ptr %7, align 8, !dbg !4345
  %14 = icmp ult i64 %12, %13, !dbg !4346
  br i1 %14, label %15, label %48, !dbg !4347

15:                                               ; preds = %11
  %16 = load ptr, ptr %8, align 8, !dbg !4348
  %17 = load i64, ptr %9, align 8, !dbg !4350
  %18 = getelementptr inbounds nuw double, ptr %16, i64 %17, !dbg !4348
  store double 0.000000e+00, ptr %18, align 8, !dbg !4351
    #dbg_declare(ptr %10, !4352, !DIExpression(), !4354)
  store i64 0, ptr %10, align 8, !dbg !4354
  br label %19, !dbg !4355

19:                                               ; preds = %41, %15
  %20 = load i64, ptr %10, align 8, !dbg !4356
  %21 = load i64, ptr %7, align 8, !dbg !4358
  %22 = load i64, ptr %9, align 8, !dbg !4359
  %23 = sub i64 %21, %22, !dbg !4360
  %24 = icmp ult i64 %20, %23, !dbg !4361
  br i1 %24, label %25, label %44, !dbg !4362

25:                                               ; preds = %19
  %26 = load ptr, ptr %5, align 8, !dbg !4363
  %27 = load i64, ptr %10, align 8, !dbg !4365
  %28 = getelementptr inbounds nuw double, ptr %26, i64 %27, !dbg !4363
  %29 = load double, ptr %28, align 8, !dbg !4363
  %30 = load ptr, ptr %6, align 8, !dbg !4366
  %31 = load i64, ptr %10, align 8, !dbg !4367
  %32 = load i64, ptr %9, align 8, !dbg !4368
  %33 = add i64 %31, %32, !dbg !4369
  %34 = getelementptr inbounds nuw double, ptr %30, i64 %33, !dbg !4366
  %35 = load double, ptr %34, align 8, !dbg !4366
  %36 = load ptr, ptr %8, align 8, !dbg !4370
  %37 = load i64, ptr %9, align 8, !dbg !4371
  %38 = getelementptr inbounds nuw double, ptr %36, i64 %37, !dbg !4370
  %39 = load double, ptr %38, align 8, !dbg !4372
  %40 = call double @llvm.fmuladd.f64(double %29, double %35, double %39), !dbg !4372
  store double %40, ptr %38, align 8, !dbg !4372
  br label %41, !dbg !4373

41:                                               ; preds = %25
  %42 = load i64, ptr %10, align 8, !dbg !4374
  %43 = add i64 %42, 1, !dbg !4374
  store i64 %43, ptr %10, align 8, !dbg !4374
  br label %19, !dbg !4375, !llvm.loop !4376

44:                                               ; preds = %19
  br label %45, !dbg !4378

45:                                               ; preds = %44
  %46 = load i64, ptr %9, align 8, !dbg !4379
  %47 = add i64 %46, 1, !dbg !4379
  store i64 %47, ptr %9, align 8, !dbg !4379
  br label %11, !dbg !4380, !llvm.loop !4381

48:                                               ; preds = %11
  ret void, !dbg !4383
}

; Function Attrs: mustprogress noinline nounwind optnone sspstrong uwtable
define double @compute_mean(ptr noundef %0, i64 noundef %1) #2 !dbg !4384 {
  %3 = alloca ptr, align 8
  %4 = alloca i64, align 8
  %5 = alloca double, align 8
  %6 = alloca i64, align 8
  store ptr %0, ptr %3, align 8
    #dbg_declare(ptr %3, !4385, !DIExpression(), !4386)
  store i64 %1, ptr %4, align 8
    #dbg_declare(ptr %4, !4387, !DIExpression(), !4388)
    #dbg_declare(ptr %5, !4389, !DIExpression(), !4390)
  store double 0.000000e+00, ptr %5, align 8, !dbg !4390
    #dbg_declare(ptr %6, !4391, !DIExpression(), !4393)
  store i64 0, ptr %6, align 8, !dbg !4393
  br label %7, !dbg !4394

7:                                                ; preds = %18, %2
  %8 = load i64, ptr %6, align 8, !dbg !4395
  %9 = load i64, ptr %4, align 8, !dbg !4397
  %10 = icmp ult i64 %8, %9, !dbg !4398
  br i1 %10, label %11, label %21, !dbg !4399

11:                                               ; preds = %7
  %12 = load ptr, ptr %3, align 8, !dbg !4400
  %13 = load i64, ptr %6, align 8, !dbg !4402
  %14 = getelementptr inbounds nuw double, ptr %12, i64 %13, !dbg !4400
  %15 = load double, ptr %14, align 8, !dbg !4400
  %16 = load double, ptr %5, align 8, !dbg !4403
  %17 = fadd double %16, %15, !dbg !4403
  store double %17, ptr %5, align 8, !dbg !4403
  br label %18, !dbg !4404

18:                                               ; preds = %11
  %19 = load i64, ptr %6, align 8, !dbg !4405
  %20 = add i64 %19, 1, !dbg !4405
  store i64 %20, ptr %6, align 8, !dbg !4405
  br label %7, !dbg !4406, !llvm.loop !4407

21:                                               ; preds = %7
  %22 = load double, ptr %5, align 8, !dbg !4409
  %23 = load i64, ptr %4, align 8, !dbg !4410
  %24 = uitofp i64 %23 to double, !dbg !4410
  %25 = fdiv double %22, %24, !dbg !4411
  ret double %25, !dbg !4412
}

; Function Attrs: mustprogress noinline nounwind optnone sspstrong uwtable
define double @compute_variance(ptr noundef %0, i64 noundef %1) #2 !dbg !4413 {
  %3 = alloca ptr, align 8
  %4 = alloca i64, align 8
  %5 = alloca double, align 8
  %6 = alloca double, align 8
  %7 = alloca i64, align 8
  %8 = alloca double, align 8
  store ptr %0, ptr %3, align 8
    #dbg_declare(ptr %3, !4414, !DIExpression(), !4415)
  store i64 %1, ptr %4, align 8
    #dbg_declare(ptr %4, !4416, !DIExpression(), !4417)
    #dbg_declare(ptr %5, !4418, !DIExpression(), !4419)
  %9 = load ptr, ptr %3, align 8, !dbg !4420
  %10 = load i64, ptr %4, align 8, !dbg !4421
  %11 = call double @compute_mean(ptr noundef %9, i64 noundef %10), !dbg !4422
  store double %11, ptr %5, align 8, !dbg !4419
    #dbg_declare(ptr %6, !4423, !DIExpression(), !4424)
  store double 0.000000e+00, ptr %6, align 8, !dbg !4424
    #dbg_declare(ptr %7, !4425, !DIExpression(), !4427)
  store i64 0, ptr %7, align 8, !dbg !4427
  br label %12, !dbg !4428

12:                                               ; preds = %27, %2
  %13 = load i64, ptr %7, align 8, !dbg !4429
  %14 = load i64, ptr %4, align 8, !dbg !4431
  %15 = icmp ult i64 %13, %14, !dbg !4432
  br i1 %15, label %16, label %30, !dbg !4433

16:                                               ; preds = %12
    #dbg_declare(ptr %8, !4434, !DIExpression(), !4436)
  %17 = load ptr, ptr %3, align 8, !dbg !4437
  %18 = load i64, ptr %7, align 8, !dbg !4438
  %19 = getelementptr inbounds nuw double, ptr %17, i64 %18, !dbg !4437
  %20 = load double, ptr %19, align 8, !dbg !4437
  %21 = load double, ptr %5, align 8, !dbg !4439
  %22 = fsub double %20, %21, !dbg !4440
  store double %22, ptr %8, align 8, !dbg !4436
  %23 = load double, ptr %8, align 8, !dbg !4441
  %24 = load double, ptr %8, align 8, !dbg !4442
  %25 = load double, ptr %6, align 8, !dbg !4443
  %26 = call double @llvm.fmuladd.f64(double %23, double %24, double %25), !dbg !4443
  store double %26, ptr %6, align 8, !dbg !4443
  br label %27, !dbg !4444

27:                                               ; preds = %16
  %28 = load i64, ptr %7, align 8, !dbg !4445
  %29 = add i64 %28, 1, !dbg !4445
  store i64 %29, ptr %7, align 8, !dbg !4445
  br label %12, !dbg !4446, !llvm.loop !4447

30:                                               ; preds = %12
  %31 = load double, ptr %6, align 8, !dbg !4449
  %32 = load i64, ptr %4, align 8, !dbg !4450
  %33 = sub i64 %32, 1, !dbg !4451
  %34 = uitofp i64 %33 to double, !dbg !4452
  %35 = fdiv double %31, %34, !dbg !4453
  ret double %35, !dbg !4454
}

; Function Attrs: mustprogress noinline nounwind optnone sspstrong uwtable
define double @compute_stddev(ptr noundef %0, i64 noundef %1) #2 !dbg !4455 {
  %3 = alloca ptr, align 8
  %4 = alloca i64, align 8
  store ptr %0, ptr %3, align 8
    #dbg_declare(ptr %3, !4456, !DIExpression(), !4457)
  store i64 %1, ptr %4, align 8
    #dbg_declare(ptr %4, !4458, !DIExpression(), !4459)
  %5 = load ptr, ptr %3, align 8, !dbg !4460
  %6 = load i64, ptr %4, align 8, !dbg !4461
  %7 = call double @compute_variance(ptr noundef %5, i64 noundef %6), !dbg !4462
  %8 = call double @sqrt(double noundef %7) #13, !dbg !4463
  ret double %8, !dbg !4464
}

; Function Attrs: mustprogress noinline optnone sspstrong uwtable
define double @compute_median(ptr noundef %0, i64 noundef %1) #1 !dbg !4465 {
  %3 = alloca double, align 8
  %4 = alloca ptr, align 8
  %5 = alloca i64, align 8
  store ptr %0, ptr %4, align 8
    #dbg_declare(ptr %4, !4468, !DIExpression(), !4469)
  store i64 %1, ptr %5, align 8
    #dbg_declare(ptr %5, !4470, !DIExpression(), !4471)
  %6 = load ptr, ptr %4, align 8, !dbg !4472
  %7 = load ptr, ptr %4, align 8, !dbg !4473
  %8 = load i64, ptr %5, align 8, !dbg !4474
  %9 = getelementptr inbounds nuw double, ptr %7, i64 %8, !dbg !4475
  call void @_ZSt4sortIPdEvT_S1_(ptr noundef %6, ptr noundef %9), !dbg !4476
  %10 = load i64, ptr %5, align 8, !dbg !4477
  %11 = urem i64 %10, 2, !dbg !4479
  %12 = icmp eq i64 %11, 0, !dbg !4480
  br i1 %12, label %13, label %27, !dbg !4480

13:                                               ; preds = %2
  %14 = load ptr, ptr %4, align 8, !dbg !4481
  %15 = load i64, ptr %5, align 8, !dbg !4483
  %16 = udiv i64 %15, 2, !dbg !4484
  %17 = sub i64 %16, 1, !dbg !4485
  %18 = getelementptr inbounds nuw double, ptr %14, i64 %17, !dbg !4481
  %19 = load double, ptr %18, align 8, !dbg !4481
  %20 = load ptr, ptr %4, align 8, !dbg !4486
  %21 = load i64, ptr %5, align 8, !dbg !4487
  %22 = udiv i64 %21, 2, !dbg !4488
  %23 = getelementptr inbounds nuw double, ptr %20, i64 %22, !dbg !4486
  %24 = load double, ptr %23, align 8, !dbg !4486
  %25 = fadd double %19, %24, !dbg !4489
  %26 = fdiv double %25, 2.000000e+00, !dbg !4490
  store double %26, ptr %3, align 8, !dbg !4491
  br label %33, !dbg !4491

27:                                               ; preds = %2
  %28 = load ptr, ptr %4, align 8, !dbg !4492
  %29 = load i64, ptr %5, align 8, !dbg !4494
  %30 = udiv i64 %29, 2, !dbg !4495
  %31 = getelementptr inbounds nuw double, ptr %28, i64 %30, !dbg !4492
  %32 = load double, ptr %31, align 8, !dbg !4492
  store double %32, ptr %3, align 8, !dbg !4496
  br label %33, !dbg !4496

33:                                               ; preds = %27, %13
  %34 = load double, ptr %3, align 8, !dbg !4497
  ret double %34, !dbg !4497
}

; Function Attrs: mustprogress noinline optnone sspstrong uwtable
define linkonce_odr void @_ZSt4sortIPdEvT_S1_(ptr noundef %0, ptr noundef %1) #1 comdat !dbg !4498 {
  %3 = alloca ptr, align 8
  %4 = alloca ptr, align 8
  %5 = alloca %class.anon, align 1
  %6 = alloca %class.anon, align 1
  store ptr %0, ptr %3, align 8
    #dbg_declare(ptr %3, !4502, !DIExpression(), !4503)
  store ptr %1, ptr %4, align 8
    #dbg_declare(ptr %4, !4504, !DIExpression(), !4505)
  %7 = load ptr, ptr %3, align 8, !dbg !4506
  %8 = load ptr, ptr %4, align 8, !dbg !4507
  call void @_ZN9__gnu_cxx5__ops16__iter_less_iterEv(), !dbg !4508
  call void @_ZSt6__sortIPdN9__gnu_cxx5__ops15_Iter_less_iterEEvT_S4_T0_(ptr noundef %7, ptr noundef %8), !dbg !4509
  ret void, !dbg !4510
}

; Function Attrs: mustprogress noinline nounwind optnone sspstrong uwtable
define linkonce_odr void @_ZN9__gnu_cxx5__ops16__iter_less_iterEv() #2 comdat !dbg !4511 {
  ret void, !dbg !4514
}

; Function Attrs: mustprogress noinline optnone sspstrong uwtable
define linkonce_odr void @_ZSt6__sortIPdN9__gnu_cxx5__ops15_Iter_less_iterEEvT_S4_T0_(ptr noundef %0, ptr noundef %1) #1 comdat !dbg !4515 {
  %3 = alloca %class.anon, align 1
  %4 = alloca ptr, align 8
  %5 = alloca ptr, align 8
  %6 = alloca %class.anon, align 1
  %7 = alloca %class.anon, align 1
  store ptr %0, ptr %4, align 8
    #dbg_declare(ptr %4, !4518, !DIExpression(), !4519)
  store ptr %1, ptr %5, align 8
    #dbg_declare(ptr %5, !4520, !DIExpression(), !4521)
    #dbg_declare(ptr %3, !4522, !DIExpression(), !4523)
  %8 = load ptr, ptr %4, align 8, !dbg !4524
  %9 = load ptr, ptr %5, align 8, !dbg !4526
  %10 = icmp ne ptr %8, %9, !dbg !4527
  br i1 %10, label %11, label %24, !dbg !4527

11:                                               ; preds = %2
  %12 = load ptr, ptr %4, align 8, !dbg !4528
  %13 = load ptr, ptr %5, align 8, !dbg !4530
  %14 = load ptr, ptr %5, align 8, !dbg !4531
  %15 = load ptr, ptr %4, align 8, !dbg !4532
  %16 = ptrtoint ptr %14 to i64, !dbg !4533
  %17 = ptrtoint ptr %15 to i64, !dbg !4533
  %18 = sub i64 %16, %17, !dbg !4533
  %19 = sdiv exact i64 %18, 8, !dbg !4533
  %20 = call noundef i64 @_ZSt4__lgIlET_S0_(i64 noundef %19), !dbg !4534
  %21 = mul nsw i64 %20, 2, !dbg !4535
  call void @_ZSt16__introsort_loopIPdlN9__gnu_cxx5__ops15_Iter_less_iterEEvT_S4_T0_T1_(ptr noundef %12, ptr noundef %13, i64 noundef %21), !dbg !4536
  %22 = load ptr, ptr %4, align 8, !dbg !4537
  %23 = load ptr, ptr %5, align 8, !dbg !4538
  call void @_ZSt22__final_insertion_sortIPdN9__gnu_cxx5__ops15_Iter_less_iterEEvT_S4_T0_(ptr noundef %22, ptr noundef %23), !dbg !4539
  br label %24, !dbg !4540

24:                                               ; preds = %11, %2
  ret void, !dbg !4541
}

; Function Attrs: mustprogress noinline nounwind optnone sspstrong uwtable
define linkonce_odr noundef i64 @_ZSt4__lgIlET_S0_(i64 noundef %0) #2 comdat !dbg !4542 {
  %2 = alloca i64, align 8
  store i64 %0, ptr %2, align 8
    #dbg_declare(ptr %2, !4543, !DIExpression(), !4544)
  %3 = load i64, ptr %2, align 8, !dbg !4545
  %4 = call noundef i32 @_ZSt11__bit_widthImEiT_(i64 noundef %3) #13, !dbg !4546
  %5 = sub nsw i32 %4, 1, !dbg !4547
  %6 = sext i32 %5 to i64, !dbg !4546
  ret i64 %6, !dbg !4548
}

; Function Attrs: mustprogress noinline optnone sspstrong uwtable
define linkonce_odr void @_ZSt16__introsort_loopIPdlN9__gnu_cxx5__ops15_Iter_less_iterEEvT_S4_T0_T1_(ptr noundef %0, ptr noundef %1, i64 noundef %2) #1 comdat !dbg !4549 {
  %4 = alloca %class.anon, align 1
  %5 = alloca ptr, align 8
  %6 = alloca ptr, align 8
  %7 = alloca i64, align 8
  %8 = alloca %class.anon, align 1
  %9 = alloca ptr, align 8
  %10 = alloca %class.anon, align 1
  %11 = alloca %class.anon, align 1
  store ptr %0, ptr %5, align 8
    #dbg_declare(ptr %5, !4554, !DIExpression(), !4555)
  store ptr %1, ptr %6, align 8
    #dbg_declare(ptr %6, !4556, !DIExpression(), !4557)
  store i64 %2, ptr %7, align 8
    #dbg_declare(ptr %7, !4558, !DIExpression(), !4559)
    #dbg_declare(ptr %4, !4560, !DIExpression(), !4561)
  br label %12, !dbg !4562

12:                                               ; preds = %27, %3
  %13 = load ptr, ptr %6, align 8, !dbg !4563
  %14 = load ptr, ptr %5, align 8, !dbg !4564
  %15 = ptrtoint ptr %13 to i64, !dbg !4565
  %16 = ptrtoint ptr %14 to i64, !dbg !4565
  %17 = sub i64 %15, %16, !dbg !4565
  %18 = sdiv exact i64 %17, 8, !dbg !4565
  %19 = icmp sgt i64 %18, 16, !dbg !4566
  br i1 %19, label %20, label %37, !dbg !4562

20:                                               ; preds = %12
  %21 = load i64, ptr %7, align 8, !dbg !4567
  %22 = icmp eq i64 %21, 0, !dbg !4570
  br i1 %22, label %23, label %27, !dbg !4570

23:                                               ; preds = %20
  %24 = load ptr, ptr %5, align 8, !dbg !4571
  %25 = load ptr, ptr %6, align 8, !dbg !4573
  %26 = load ptr, ptr %6, align 8, !dbg !4574
  call void @_ZSt14__partial_sortIPdN9__gnu_cxx5__ops15_Iter_less_iterEEvT_S4_S4_T0_(ptr noundef %24, ptr noundef %25, ptr noundef %26), !dbg !4575
  br label %37, !dbg !4576

27:                                               ; preds = %20
  %28 = load i64, ptr %7, align 8, !dbg !4577
  %29 = add nsw i64 %28, -1, !dbg !4577
  store i64 %29, ptr %7, align 8, !dbg !4577
    #dbg_declare(ptr %9, !4578, !DIExpression(), !4579)
  %30 = load ptr, ptr %5, align 8, !dbg !4580
  %31 = load ptr, ptr %6, align 8, !dbg !4581
  %32 = call noundef ptr @_ZSt27__unguarded_partition_pivotIPdN9__gnu_cxx5__ops15_Iter_less_iterEET_S4_S4_T0_(ptr noundef %30, ptr noundef %31), !dbg !4582
  store ptr %32, ptr %9, align 8, !dbg !4579
  %33 = load ptr, ptr %9, align 8, !dbg !4583
  %34 = load ptr, ptr %6, align 8, !dbg !4584
  %35 = load i64, ptr %7, align 8, !dbg !4585
  call void @_ZSt16__introsort_loopIPdlN9__gnu_cxx5__ops15_Iter_less_iterEEvT_S4_T0_T1_(ptr noundef %33, ptr noundef %34, i64 noundef %35), !dbg !4586
  %36 = load ptr, ptr %9, align 8, !dbg !4587
  store ptr %36, ptr %6, align 8, !dbg !4588
  br label %12, !dbg !4562, !llvm.loop !4589

37:                                               ; preds = %23, %12
  ret void, !dbg !4591
}

; Function Attrs: mustprogress noinline optnone sspstrong uwtable
define linkonce_odr void @_ZSt22__final_insertion_sortIPdN9__gnu_cxx5__ops15_Iter_less_iterEEvT_S4_T0_(ptr noundef %0, ptr noundef %1) #1 comdat !dbg !4592 {
  %3 = alloca %class.anon, align 1
  %4 = alloca ptr, align 8
  %5 = alloca ptr, align 8
  %6 = alloca %class.anon, align 1
  %7 = alloca %class.anon, align 1
  %8 = alloca %class.anon, align 1
  store ptr %0, ptr %4, align 8
    #dbg_declare(ptr %4, !4593, !DIExpression(), !4594)
  store ptr %1, ptr %5, align 8
    #dbg_declare(ptr %5, !4595, !DIExpression(), !4596)
    #dbg_declare(ptr %3, !4597, !DIExpression(), !4598)
  %9 = load ptr, ptr %5, align 8, !dbg !4599
  %10 = load ptr, ptr %4, align 8, !dbg !4601
  %11 = ptrtoint ptr %9 to i64, !dbg !4602
  %12 = ptrtoint ptr %10 to i64, !dbg !4602
  %13 = sub i64 %11, %12, !dbg !4602
  %14 = sdiv exact i64 %13, 8, !dbg !4602
  %15 = icmp sgt i64 %14, 16, !dbg !4603
  br i1 %15, label %16, label %23, !dbg !4603

16:                                               ; preds = %2
  %17 = load ptr, ptr %4, align 8, !dbg !4604
  %18 = load ptr, ptr %4, align 8, !dbg !4606
  %19 = getelementptr inbounds double, ptr %18, i64 16, !dbg !4607
  call void @_ZSt16__insertion_sortIPdN9__gnu_cxx5__ops15_Iter_less_iterEEvT_S4_T0_(ptr noundef %17, ptr noundef %19), !dbg !4608
  %20 = load ptr, ptr %4, align 8, !dbg !4609
  %21 = getelementptr inbounds double, ptr %20, i64 16, !dbg !4610
  %22 = load ptr, ptr %5, align 8, !dbg !4611
  call void @_ZSt26__unguarded_insertion_sortIPdN9__gnu_cxx5__ops15_Iter_less_iterEEvT_S4_T0_(ptr noundef %21, ptr noundef %22), !dbg !4612
  br label %26, !dbg !4613

23:                                               ; preds = %2
  %24 = load ptr, ptr %4, align 8, !dbg !4614
  %25 = load ptr, ptr %5, align 8, !dbg !4615
  call void @_ZSt16__insertion_sortIPdN9__gnu_cxx5__ops15_Iter_less_iterEEvT_S4_T0_(ptr noundef %24, ptr noundef %25), !dbg !4616
  br label %26

26:                                               ; preds = %23, %16
  ret void, !dbg !4617
}

; Function Attrs: mustprogress noinline optnone sspstrong uwtable
define linkonce_odr void @_ZSt16__insertion_sortIPdN9__gnu_cxx5__ops15_Iter_less_iterEEvT_S4_T0_(ptr noundef %0, ptr noundef %1) #1 comdat !dbg !4618 {
  %3 = alloca ptr, align 8
  %4 = alloca ptr, align 8
  %5 = alloca ptr, align 8
  %6 = alloca ptr, align 8
  %7 = alloca ptr, align 8
  %8 = alloca ptr, align 8
  %9 = alloca ptr, align 8
  %10 = alloca ptr, align 8
  %11 = alloca ptr, align 8
  %12 = alloca ptr, align 8
  %13 = alloca ptr, align 8
  %14 = alloca ptr, align 8
  %15 = alloca ptr, align 8
  %16 = alloca ptr, align 8
  %17 = alloca %class.anon, align 1
  %18 = alloca ptr, align 8
  %19 = alloca ptr, align 8
  %20 = alloca ptr, align 8
  %21 = alloca double, align 8
  %22 = alloca %class.anon, align 1
  %23 = alloca %class.anon, align 1
  %24 = alloca %class.anon, align 1
  store ptr %0, ptr %18, align 8
    #dbg_declare(ptr %18, !4619, !DIExpression(), !4620)
  store ptr %1, ptr %19, align 8
    #dbg_declare(ptr %19, !4621, !DIExpression(), !4622)
    #dbg_declare(ptr %17, !4623, !DIExpression(), !4624)
  %25 = load ptr, ptr %18, align 8, !dbg !4625
  %26 = load ptr, ptr %19, align 8, !dbg !4627
  %27 = icmp eq ptr %25, %26, !dbg !4628
  br i1 %27, label %28, label %29, !dbg !4628

28:                                               ; preds = %2
  br label %71, !dbg !4629

29:                                               ; preds = %2
    #dbg_declare(ptr %20, !4630, !DIExpression(), !4632)
  %30 = load ptr, ptr %18, align 8, !dbg !4633
  %31 = getelementptr inbounds double, ptr %30, i64 1, !dbg !4634
  store ptr %31, ptr %20, align 8, !dbg !4632
  br label %32, !dbg !4635

32:                                               ; preds = %68, %29
  %33 = load ptr, ptr %20, align 8, !dbg !4636
  %34 = load ptr, ptr %19, align 8, !dbg !4638
  %35 = icmp ne ptr %33, %34, !dbg !4639
  br i1 %35, label %36, label %71, !dbg !4640

36:                                               ; preds = %32
  %37 = load ptr, ptr %20, align 8, !dbg !4641
  %38 = load ptr, ptr %18, align 8, !dbg !4644
  %39 = call noundef zeroext i1 @_ZNK9__gnu_cxx5__ops15_Iter_less_iterclIPdS3_EEbT_T0_(ptr noundef nonnull align 1 dereferenceable(1) %17, ptr noundef %37, ptr noundef %38), !dbg !4645
  br i1 %39, label %40, label %65, !dbg !4645

40:                                               ; preds = %36
    #dbg_declare(ptr %21, !4646, !DIExpression(), !4649)
  %41 = load ptr, ptr %20, align 8, !dbg !4650
  %42 = load double, ptr %41, align 8, !dbg !4650
  store double %42, ptr %21, align 8, !dbg !4649
  %43 = load ptr, ptr %18, align 8, !dbg !4651
  %44 = load ptr, ptr %20, align 8, !dbg !4651
  %45 = load ptr, ptr %20, align 8, !dbg !4651
  %46 = getelementptr inbounds double, ptr %45, i64 1, !dbg !4651
  store ptr %43, ptr %14, align 8
    #dbg_declare(ptr %14, !4652, !DIExpression(), !4659)
  store ptr %44, ptr %15, align 8
    #dbg_declare(ptr %15, !4661, !DIExpression(), !4662)
  store ptr %46, ptr %16, align 8
    #dbg_declare(ptr %16, !4663, !DIExpression(), !4664)
  %47 = load ptr, ptr %14, align 8, !dbg !4665
  %48 = call noundef ptr @_ZSt12__miter_baseIPdET_S1_(ptr noundef %47), !dbg !4666
  %49 = load ptr, ptr %15, align 8, !dbg !4667
  %50 = call noundef ptr @_ZSt12__miter_baseIPdET_S1_(ptr noundef %49), !dbg !4668
  %51 = load ptr, ptr %16, align 8, !dbg !4669
  store ptr %48, ptr %11, align 8
    #dbg_declare(ptr %11, !4670, !DIExpression(), !4676)
  store ptr %50, ptr %12, align 8
    #dbg_declare(ptr %12, !4678, !DIExpression(), !4679)
  store ptr %51, ptr %13, align 8
    #dbg_declare(ptr %13, !4680, !DIExpression(), !4681)
  %52 = load ptr, ptr %11, align 8, !dbg !4682
  store ptr %52, ptr %3, align 8
    #dbg_declare(ptr %3, !4683, !DIExpression(), !4688)
  %53 = load ptr, ptr %3, align 8, !dbg !4690
  %54 = load ptr, ptr %12, align 8, !dbg !4691
  store ptr %54, ptr %4, align 8
    #dbg_declare(ptr %4, !4683, !DIExpression(), !4692)
  %55 = load ptr, ptr %4, align 8, !dbg !4694
  %56 = load ptr, ptr %13, align 8, !dbg !4695
  store ptr %56, ptr %5, align 8
    #dbg_declare(ptr %5, !4683, !DIExpression(), !4696)
  %57 = load ptr, ptr %5, align 8, !dbg !4698
  store ptr %53, ptr %6, align 8
    #dbg_declare(ptr %6, !4699, !DIExpression(), !4702)
  store ptr %55, ptr %7, align 8
    #dbg_declare(ptr %7, !4704, !DIExpression(), !4705)
  store ptr %57, ptr %8, align 8
    #dbg_declare(ptr %8, !4706, !DIExpression(), !4707)
  %58 = load ptr, ptr %6, align 8, !dbg !4708
  %59 = load ptr, ptr %7, align 8, !dbg !4709
  %60 = load ptr, ptr %8, align 8, !dbg !4710
  %61 = call noundef ptr @_ZSt23__copy_move_backward_a2ILb1EPdS0_ET1_T0_S2_S1_(ptr noundef %58, ptr noundef %59, ptr noundef %60), !dbg !4711
  store ptr %13, ptr %9, align 8
    #dbg_declare(ptr %9, !4712, !DIExpression(), !4718)
  store ptr %61, ptr %10, align 8
    #dbg_declare(ptr %10, !4720, !DIExpression(), !4721)
  %62 = load ptr, ptr %10, align 8, !dbg !4722
  %63 = load double, ptr %21, align 8, !dbg !4723
  %64 = load ptr, ptr %18, align 8, !dbg !4724
  store double %63, ptr %64, align 8, !dbg !4725
  br label %67, !dbg !4726

65:                                               ; preds = %36
  %66 = load ptr, ptr %20, align 8, !dbg !4727
  call void @_ZN9__gnu_cxx5__ops15__val_comp_iterENS0_15_Iter_less_iterE(), !dbg !4728
  call void @_ZSt25__unguarded_linear_insertIPdN9__gnu_cxx5__ops14_Val_less_iterEEvT_T0_(ptr noundef %66), !dbg !4729
  br label %67

67:                                               ; preds = %65, %40
  br label %68, !dbg !4730

68:                                               ; preds = %67
  %69 = load ptr, ptr %20, align 8, !dbg !4731
  %70 = getelementptr inbounds nuw double, ptr %69, i32 1, !dbg !4731
  store ptr %70, ptr %20, align 8, !dbg !4731
  br label %32, !dbg !4732, !llvm.loop !4733

71:                                               ; preds = %32, %28
  ret void, !dbg !4735
}

; Function Attrs: mustprogress noinline optnone sspstrong uwtable
define linkonce_odr void @_ZSt26__unguarded_insertion_sortIPdN9__gnu_cxx5__ops15_Iter_less_iterEEvT_S4_T0_(ptr noundef %0, ptr noundef %1) #1 comdat !dbg !4736 {
  %3 = alloca %class.anon, align 1
  %4 = alloca ptr, align 8
  %5 = alloca ptr, align 8
  %6 = alloca ptr, align 8
  %7 = alloca %class.anon, align 1
  %8 = alloca %class.anon, align 1
  %9 = alloca %class.anon, align 1
  store ptr %0, ptr %4, align 8
    #dbg_declare(ptr %4, !4737, !DIExpression(), !4738)
  store ptr %1, ptr %5, align 8
    #dbg_declare(ptr %5, !4739, !DIExpression(), !4740)
    #dbg_declare(ptr %3, !4741, !DIExpression(), !4742)
    #dbg_declare(ptr %6, !4743, !DIExpression(), !4745)
  %10 = load ptr, ptr %4, align 8, !dbg !4746
  store ptr %10, ptr %6, align 8, !dbg !4745
  br label %11, !dbg !4747

11:                                               ; preds = %17, %2
  %12 = load ptr, ptr %6, align 8, !dbg !4748
  %13 = load ptr, ptr %5, align 8, !dbg !4750
  %14 = icmp ne ptr %12, %13, !dbg !4751
  br i1 %14, label %15, label %20, !dbg !4752

15:                                               ; preds = %11
  %16 = load ptr, ptr %6, align 8, !dbg !4753
  call void @_ZN9__gnu_cxx5__ops15__val_comp_iterENS0_15_Iter_less_iterE(), !dbg !4754
  call void @_ZSt25__unguarded_linear_insertIPdN9__gnu_cxx5__ops14_Val_less_iterEEvT_T0_(ptr noundef %16), !dbg !4755
  br label %17, !dbg !4755

17:                                               ; preds = %15
  %18 = load ptr, ptr %6, align 8, !dbg !4756
  %19 = getelementptr inbounds nuw double, ptr %18, i32 1, !dbg !4756
  store ptr %19, ptr %6, align 8, !dbg !4756
  br label %11, !dbg !4757, !llvm.loop !4758

20:                                               ; preds = %11
  ret void, !dbg !4760
}

; Function Attrs: mustprogress noinline nounwind optnone sspstrong uwtable
define linkonce_odr void @_ZN9__gnu_cxx5__ops15__val_comp_iterENS0_15_Iter_less_iterE() #2 comdat !dbg !4761 {
  %1 = alloca %class.anon, align 1
    #dbg_declare(ptr %1, !4764, !DIExpression(), !4765)
  ret void, !dbg !4766
}

; Function Attrs: mustprogress noinline optnone sspstrong uwtable
define linkonce_odr void @_ZSt25__unguarded_linear_insertIPdN9__gnu_cxx5__ops14_Val_less_iterEEvT_T0_(ptr noundef %0) #1 comdat !dbg !4767 {
  %2 = alloca %class.anon, align 1
  %3 = alloca ptr, align 8
  %4 = alloca double, align 8
  %5 = alloca ptr, align 8
  store ptr %0, ptr %3, align 8
    #dbg_declare(ptr %3, !4772, !DIExpression(), !4773)
    #dbg_declare(ptr %2, !4774, !DIExpression(), !4775)
    #dbg_declare(ptr %4, !4776, !DIExpression(), !4777)
  %6 = load ptr, ptr %3, align 8, !dbg !4778
  %7 = load double, ptr %6, align 8, !dbg !4778
  store double %7, ptr %4, align 8, !dbg !4777
    #dbg_declare(ptr %5, !4779, !DIExpression(), !4780)
  %8 = load ptr, ptr %3, align 8, !dbg !4781
  store ptr %8, ptr %5, align 8, !dbg !4780
  %9 = load ptr, ptr %5, align 8, !dbg !4782
  %10 = getelementptr inbounds double, ptr %9, i32 -1, !dbg !4782
  store ptr %10, ptr %5, align 8, !dbg !4782
  br label %11, !dbg !4783

11:                                               ; preds = %14, %1
  %12 = load ptr, ptr %5, align 8, !dbg !4784
  %13 = call noundef zeroext i1 @_ZNK9__gnu_cxx5__ops14_Val_less_iterclIdPdEEbRT_T0_(ptr noundef nonnull align 1 dereferenceable(1) %2, ptr noundef nonnull align 8 dereferenceable(8) %4, ptr noundef %12), !dbg !4785
  br i1 %13, label %14, label %21, !dbg !4783

14:                                               ; preds = %11
  %15 = load ptr, ptr %5, align 8, !dbg !4786
  %16 = load double, ptr %15, align 8, !dbg !4786
  %17 = load ptr, ptr %3, align 8, !dbg !4788
  store double %16, ptr %17, align 8, !dbg !4789
  %18 = load ptr, ptr %5, align 8, !dbg !4790
  store ptr %18, ptr %3, align 8, !dbg !4791
  %19 = load ptr, ptr %5, align 8, !dbg !4792
  %20 = getelementptr inbounds double, ptr %19, i32 -1, !dbg !4792
  store ptr %20, ptr %5, align 8, !dbg !4792
  br label %11, !dbg !4783, !llvm.loop !4793

21:                                               ; preds = %11
  %22 = load double, ptr %4, align 8, !dbg !4795
  %23 = load ptr, ptr %3, align 8, !dbg !4796
  store double %22, ptr %23, align 8, !dbg !4797
  ret void, !dbg !4798
}

; Function Attrs: mustprogress noinline nounwind optnone sspstrong uwtable
define linkonce_odr noundef zeroext i1 @_ZNK9__gnu_cxx5__ops14_Val_less_iterclIdPdEEbRT_T0_(ptr noundef nonnull align 1 dereferenceable(1) %0, ptr noundef nonnull align 8 dereferenceable(8) %1, ptr noundef %2) #2 comdat align 2 !dbg !4799 {
  %4 = alloca ptr, align 8
  %5 = alloca ptr, align 8
  %6 = alloca ptr, align 8
  store ptr %0, ptr %4, align 8
    #dbg_declare(ptr %4, !4808, !DIExpression(), !4810)
  store ptr %1, ptr %5, align 8
    #dbg_declare(ptr %5, !4811, !DIExpression(), !4812)
  store ptr %2, ptr %6, align 8
    #dbg_declare(ptr %6, !4813, !DIExpression(), !4814)
  %7 = load ptr, ptr %4, align 8
  %8 = load ptr, ptr %5, align 8, !dbg !4815, !nonnull !57, !align !1906
  %9 = load double, ptr %8, align 8, !dbg !4815
  %10 = load ptr, ptr %6, align 8, !dbg !4816
  %11 = load double, ptr %10, align 8, !dbg !4817
  %12 = fcmp olt double %9, %11, !dbg !4818
  ret i1 %12, !dbg !4819
}

; Function Attrs: mustprogress noinline nounwind optnone sspstrong uwtable
define linkonce_odr noundef zeroext i1 @_ZNK9__gnu_cxx5__ops15_Iter_less_iterclIPdS3_EEbT_T0_(ptr noundef nonnull align 1 dereferenceable(1) %0, ptr noundef %1, ptr noundef %2) #2 comdat align 2 !dbg !4820 {
  %4 = alloca ptr, align 8
  %5 = alloca ptr, align 8
  %6 = alloca ptr, align 8
  store ptr %0, ptr %4, align 8
    #dbg_declare(ptr %4, !4829, !DIExpression(), !4831)
  store ptr %1, ptr %5, align 8
    #dbg_declare(ptr %5, !4832, !DIExpression(), !4833)
  store ptr %2, ptr %6, align 8
    #dbg_declare(ptr %6, !4834, !DIExpression(), !4835)
  %7 = load ptr, ptr %4, align 8
  %8 = load ptr, ptr %5, align 8, !dbg !4836
  %9 = load double, ptr %8, align 8, !dbg !4837
  %10 = load ptr, ptr %6, align 8, !dbg !4838
  %11 = load double, ptr %10, align 8, !dbg !4839
  %12 = fcmp olt double %9, %11, !dbg !4840
  ret i1 %12, !dbg !4841
}

; Function Attrs: mustprogress noinline nounwind optnone sspstrong uwtable
define linkonce_odr noundef ptr @_ZSt12__miter_baseIPdET_S1_(ptr noundef %0) #2 comdat !dbg !4842 {
  %2 = alloca ptr, align 8
  store ptr %0, ptr %2, align 8
    #dbg_declare(ptr %2, !4844, !DIExpression(), !4845)
  %3 = load ptr, ptr %2, align 8, !dbg !4846
  ret ptr %3, !dbg !4847
}

; Function Attrs: mustprogress noinline optnone sspstrong uwtable
define linkonce_odr noundef ptr @_ZSt23__copy_move_backward_a2ILb1EPdS0_ET1_T0_S2_S1_(ptr noundef %0, ptr noundef %1, ptr noundef %2) #1 comdat !dbg !4848 {
  %4 = alloca ptr, align 8
  %5 = alloca ptr, align 8
  %6 = alloca ptr, align 8
  %7 = alloca ptr, align 8
  %8 = alloca ptr, align 8
  %9 = alloca ptr, align 8
  %10 = alloca ptr, align 8
  %11 = alloca i64, align 8
  %12 = alloca i64, align 8
  %13 = alloca ptr, align 8
  %14 = alloca ptr, align 8
  %15 = alloca ptr, align 8
  %16 = alloca ptr, align 8
  %17 = alloca ptr, align 8
  %18 = alloca i64, align 8
  store ptr %0, ptr %15, align 8
    #dbg_declare(ptr %15, !4849, !DIExpression(), !4850)
  store ptr %1, ptr %16, align 8
    #dbg_declare(ptr %16, !4851, !DIExpression(), !4852)
  store ptr %2, ptr %17, align 8
    #dbg_declare(ptr %17, !4853, !DIExpression(), !4854)
    #dbg_declare(ptr %18, !4855, !DIExpression(), !4859)
  %19 = load ptr, ptr %15, align 8, !dbg !4860
  %20 = load ptr, ptr %16, align 8, !dbg !4861
  store ptr %19, ptr %13, align 8
    #dbg_declare(ptr %13, !4862, !DIExpression(), !4869)
  store ptr %20, ptr %14, align 8
    #dbg_declare(ptr %14, !4871, !DIExpression(), !4872)
  %21 = load ptr, ptr %13, align 8, !dbg !4873
  %22 = load ptr, ptr %14, align 8, !dbg !4874
  store ptr %13, ptr %4, align 8
    #dbg_declare(ptr %4, !4875, !DIExpression(), !4892)
  store ptr %21, ptr %6, align 8
    #dbg_declare(ptr %6, !4894, !DIExpression(), !4898)
  store ptr %22, ptr %7, align 8
    #dbg_declare(ptr %7, !4900, !DIExpression(), !4901)
    #dbg_declare(ptr poison, !4902, !DIExpression(), !4903)
  %23 = load ptr, ptr %7, align 8, !dbg !4904
  %24 = load ptr, ptr %6, align 8, !dbg !4905
  %25 = ptrtoint ptr %23 to i64, !dbg !4906
  %26 = ptrtoint ptr %24 to i64, !dbg !4906
  %27 = sub i64 %25, %26, !dbg !4906
  %28 = sdiv exact i64 %27, 8, !dbg !4906
  store i64 %28, ptr %18, align 8, !dbg !4859
  %29 = load i64, ptr %18, align 8, !dbg !4907
  %30 = sub nsw i64 0, %29, !dbg !4908
  store ptr %17, ptr %10, align 8
    #dbg_declare(ptr %10, !4909, !DIExpression(), !4916)
  store i64 %30, ptr %11, align 8
    #dbg_declare(ptr %11, !4918, !DIExpression(), !4919)
    #dbg_declare(ptr %12, !4920, !DIExpression(), !4921)
  %31 = load i64, ptr %11, align 8, !dbg !4922
  store i64 %31, ptr %12, align 8, !dbg !4921
  %32 = load ptr, ptr %10, align 8, !dbg !4923, !nonnull !57, !align !1906
  %33 = load i64, ptr %12, align 8, !dbg !4924
  %34 = load ptr, ptr %10, align 8, !dbg !4925, !nonnull !57, !align !1906
  store ptr %34, ptr %5, align 8
    #dbg_declare(ptr %5, !4875, !DIExpression(), !4926)
  call void @_ZSt9__advanceIPdlEvRT_T0_St26random_access_iterator_tag(ptr noundef nonnull align 8 dereferenceable(8) %32, i64 noundef %33), !dbg !4928
  %35 = load i64, ptr %18, align 8, !dbg !4929
  %36 = icmp sgt i64 %35, 1, !dbg !4931
  br i1 %36, label %37, label %42, !dbg !4932

37:                                               ; preds = %3
  %38 = load ptr, ptr %17, align 8, !dbg !4933
  %39 = load ptr, ptr %15, align 8, !dbg !4935
  %40 = load i64, ptr %18, align 8, !dbg !4936
  %41 = mul i64 %40, 8, !dbg !4937
  call void @llvm.memmove.p0.p0.i64(ptr align 8 %38, ptr align 8 %39, i64 %41, i1 false), !dbg !4938
  br label %52, !dbg !4939

42:                                               ; preds = %3
  %43 = load i64, ptr %18, align 8, !dbg !4940
  %44 = icmp eq i64 %43, 1, !dbg !4942
  br i1 %44, label %45, label %51, !dbg !4942

45:                                               ; preds = %42
  store ptr %17, ptr %8, align 8
    #dbg_declare(ptr %8, !4943, !DIExpression(), !4950)
  store ptr %15, ptr %9, align 8
    #dbg_declare(ptr %9, !4952, !DIExpression(), !4953)
  %46 = load ptr, ptr %9, align 8, !dbg !4954, !nonnull !57, !align !1906
  %47 = load ptr, ptr %46, align 8, !dbg !4954
  %48 = load double, ptr %47, align 8, !dbg !4956
  %49 = load ptr, ptr %8, align 8, !dbg !4957, !nonnull !57, !align !1906
  %50 = load ptr, ptr %49, align 8, !dbg !4957
  store double %48, ptr %50, align 8, !dbg !4958
  br label %51, !dbg !4959

51:                                               ; preds = %45, %42
  br label %52

52:                                               ; preds = %51, %37
  %53 = load ptr, ptr %17, align 8, !dbg !4960
  ret ptr %53, !dbg !4961
}

; Function Attrs: mustprogress noinline nounwind optnone sspstrong uwtable
define linkonce_odr void @_ZSt9__advanceIPdlEvRT_T0_St26random_access_iterator_tag(ptr noundef nonnull align 8 dereferenceable(8) %0, i64 noundef %1) #2 comdat !dbg !4962 {
  %3 = alloca %class.anon, align 1
  %4 = alloca ptr, align 8
  %5 = alloca i64, align 8
  store ptr %0, ptr %4, align 8
    #dbg_declare(ptr %4, !4966, !DIExpression(), !4967)
  store i64 %1, ptr %5, align 8
    #dbg_declare(ptr %5, !4968, !DIExpression(), !4969)
    #dbg_declare(ptr %3, !4970, !DIExpression(), !4971)
  %6 = load i64, ptr %5, align 8, !dbg !4972
  %7 = call i1 @llvm.is.constant.i64(i64 %6), !dbg !4974
  br i1 %7, label %8, label %15, !dbg !4975

8:                                                ; preds = %2
  %9 = load i64, ptr %5, align 8, !dbg !4976
  %10 = icmp eq i64 %9, 1, !dbg !4977
  br i1 %10, label %11, label %15, !dbg !4975

11:                                               ; preds = %8
  %12 = load ptr, ptr %4, align 8, !dbg !4978, !nonnull !57, !align !1906
  %13 = load ptr, ptr %12, align 8, !dbg !4979
  %14 = getelementptr inbounds nuw double, ptr %13, i32 1, !dbg !4979
  store ptr %14, ptr %12, align 8, !dbg !4979
  br label %31, !dbg !4979

15:                                               ; preds = %8, %2
  %16 = load i64, ptr %5, align 8, !dbg !4980
  %17 = call i1 @llvm.is.constant.i64(i64 %16), !dbg !4982
  br i1 %17, label %18, label %25, !dbg !4983

18:                                               ; preds = %15
  %19 = load i64, ptr %5, align 8, !dbg !4984
  %20 = icmp eq i64 %19, -1, !dbg !4985
  br i1 %20, label %21, label %25, !dbg !4983

21:                                               ; preds = %18
  %22 = load ptr, ptr %4, align 8, !dbg !4986, !nonnull !57, !align !1906
  %23 = load ptr, ptr %22, align 8, !dbg !4987
  %24 = getelementptr inbounds double, ptr %23, i32 -1, !dbg !4987
  store ptr %24, ptr %22, align 8, !dbg !4987
  br label %30, !dbg !4987

25:                                               ; preds = %18, %15
  %26 = load i64, ptr %5, align 8, !dbg !4988
  %27 = load ptr, ptr %4, align 8, !dbg !4989, !nonnull !57, !align !1906
  %28 = load ptr, ptr %27, align 8, !dbg !4990
  %29 = getelementptr inbounds double, ptr %28, i64 %26, !dbg !4990
  store ptr %29, ptr %27, align 8, !dbg !4990
  br label %30

30:                                               ; preds = %25, %21
  br label %31

31:                                               ; preds = %30, %11
  ret void, !dbg !4991
}

; Function Attrs: nocallback nofree nounwind willreturn memory(argmem: readwrite)
declare void @llvm.memmove.p0.p0.i64(ptr writeonly captures(none), ptr readonly captures(none), i64, i1 immarg) #5

; Function Attrs: convergent nocallback nofree nosync nounwind willreturn memory(none)
declare i1 @llvm.is.constant.i64(i64) #9

; Function Attrs: mustprogress noinline optnone sspstrong uwtable
define linkonce_odr void @_ZSt14__partial_sortIPdN9__gnu_cxx5__ops15_Iter_less_iterEEvT_S4_S4_T0_(ptr noundef %0, ptr noundef %1, ptr noundef %2) #1 comdat !dbg !4992 {
  %4 = alloca %class.anon, align 1
  %5 = alloca ptr, align 8
  %6 = alloca ptr, align 8
  %7 = alloca ptr, align 8
  %8 = alloca %class.anon, align 1
  store ptr %0, ptr %5, align 8
    #dbg_declare(ptr %5, !4995, !DIExpression(), !4996)
  store ptr %1, ptr %6, align 8
    #dbg_declare(ptr %6, !4997, !DIExpression(), !4998)
  store ptr %2, ptr %7, align 8
    #dbg_declare(ptr %7, !4999, !DIExpression(), !5000)
    #dbg_declare(ptr %4, !5001, !DIExpression(), !5002)
  %9 = load ptr, ptr %5, align 8, !dbg !5003
  %10 = load ptr, ptr %6, align 8, !dbg !5004
  %11 = load ptr, ptr %7, align 8, !dbg !5005
  call void @_ZSt13__heap_selectIPdN9__gnu_cxx5__ops15_Iter_less_iterEEvT_S4_S4_T0_(ptr noundef %9, ptr noundef %10, ptr noundef %11), !dbg !5006
  %12 = load ptr, ptr %5, align 8, !dbg !5007
  %13 = load ptr, ptr %6, align 8, !dbg !5008
  call void @_ZSt11__sort_heapIPdN9__gnu_cxx5__ops15_Iter_less_iterEEvT_S4_RT0_(ptr noundef %12, ptr noundef %13, ptr noundef nonnull align 1 dereferenceable(1) %4), !dbg !5009
  ret void, !dbg !5010
}

; Function Attrs: mustprogress noinline optnone sspstrong uwtable
define linkonce_odr noundef ptr @_ZSt27__unguarded_partition_pivotIPdN9__gnu_cxx5__ops15_Iter_less_iterEET_S4_S4_T0_(ptr noundef %0, ptr noundef %1) #1 comdat !dbg !5011 {
  %3 = alloca %class.anon, align 1
  %4 = alloca ptr, align 8
  %5 = alloca ptr, align 8
  %6 = alloca ptr, align 8
  %7 = alloca %class.anon, align 1
  %8 = alloca %class.anon, align 1
  store ptr %0, ptr %4, align 8
    #dbg_declare(ptr %4, !5014, !DIExpression(), !5015)
  store ptr %1, ptr %5, align 8
    #dbg_declare(ptr %5, !5016, !DIExpression(), !5017)
    #dbg_declare(ptr %3, !5018, !DIExpression(), !5019)
    #dbg_declare(ptr %6, !5020, !DIExpression(), !5021)
  %9 = load ptr, ptr %4, align 8, !dbg !5022
  %10 = load ptr, ptr %5, align 8, !dbg !5023
  %11 = load ptr, ptr %4, align 8, !dbg !5024
  %12 = ptrtoint ptr %10 to i64, !dbg !5025
  %13 = ptrtoint ptr %11 to i64, !dbg !5025
  %14 = sub i64 %12, %13, !dbg !5025
  %15 = sdiv exact i64 %14, 8, !dbg !5025
  %16 = sdiv i64 %15, 2, !dbg !5026
  %17 = getelementptr inbounds double, ptr %9, i64 %16, !dbg !5027
  store ptr %17, ptr %6, align 8, !dbg !5021
  %18 = load ptr, ptr %4, align 8, !dbg !5028
  %19 = load ptr, ptr %4, align 8, !dbg !5029
  %20 = getelementptr inbounds double, ptr %19, i64 1, !dbg !5030
  %21 = load ptr, ptr %6, align 8, !dbg !5031
  %22 = load ptr, ptr %5, align 8, !dbg !5032
  %23 = getelementptr inbounds double, ptr %22, i64 -1, !dbg !5033
  call void @_ZSt22__move_median_to_firstIPdN9__gnu_cxx5__ops15_Iter_less_iterEEvT_S4_S4_S4_T0_(ptr noundef %18, ptr noundef %20, ptr noundef %21, ptr noundef %23), !dbg !5034
  %24 = load ptr, ptr %4, align 8, !dbg !5035
  %25 = getelementptr inbounds double, ptr %24, i64 1, !dbg !5036
  %26 = load ptr, ptr %5, align 8, !dbg !5037
  %27 = load ptr, ptr %4, align 8, !dbg !5038
  %28 = call noundef ptr @_ZSt21__unguarded_partitionIPdN9__gnu_cxx5__ops15_Iter_less_iterEET_S4_S4_S4_T0_(ptr noundef %25, ptr noundef %26, ptr noundef %27), !dbg !5039
  ret ptr %28, !dbg !5040
}

; Function Attrs: mustprogress noinline optnone sspstrong uwtable
define linkonce_odr void @_ZSt22__move_median_to_firstIPdN9__gnu_cxx5__ops15_Iter_less_iterEEvT_S4_S4_S4_T0_(ptr noundef %0, ptr noundef %1, ptr noundef %2, ptr noundef %3) #1 comdat !dbg !5041 {
  %5 = alloca %class.anon, align 1
  %6 = alloca ptr, align 8
  %7 = alloca ptr, align 8
  %8 = alloca ptr, align 8
  %9 = alloca ptr, align 8
  store ptr %0, ptr %6, align 8
    #dbg_declare(ptr %6, !5045, !DIExpression(), !5046)
  store ptr %1, ptr %7, align 8
    #dbg_declare(ptr %7, !5047, !DIExpression(), !5048)
  store ptr %2, ptr %8, align 8
    #dbg_declare(ptr %8, !5049, !DIExpression(), !5050)
  store ptr %3, ptr %9, align 8
    #dbg_declare(ptr %9, !5051, !DIExpression(), !5052)
    #dbg_declare(ptr %5, !5053, !DIExpression(), !5054)
  %10 = load ptr, ptr %7, align 8, !dbg !5055
  %11 = load ptr, ptr %8, align 8, !dbg !5057
  %12 = call noundef zeroext i1 @_ZNK9__gnu_cxx5__ops15_Iter_less_iterclIPdS3_EEbT_T0_(ptr noundef nonnull align 1 dereferenceable(1) %5, ptr noundef %10, ptr noundef %11), !dbg !5058
  br i1 %12, label %13, label %32, !dbg !5058

13:                                               ; preds = %4
  %14 = load ptr, ptr %8, align 8, !dbg !5059
  %15 = load ptr, ptr %9, align 8, !dbg !5062
  %16 = call noundef zeroext i1 @_ZNK9__gnu_cxx5__ops15_Iter_less_iterclIPdS3_EEbT_T0_(ptr noundef nonnull align 1 dereferenceable(1) %5, ptr noundef %14, ptr noundef %15), !dbg !5063
  br i1 %16, label %17, label %20, !dbg !5063

17:                                               ; preds = %13
  %18 = load ptr, ptr %6, align 8, !dbg !5064
  %19 = load ptr, ptr %8, align 8, !dbg !5065
  call void @_ZSt9iter_swapIPdS0_EvT_T0_(ptr noundef %18, ptr noundef %19), !dbg !5066
  br label %31, !dbg !5066

20:                                               ; preds = %13
  %21 = load ptr, ptr %7, align 8, !dbg !5067
  %22 = load ptr, ptr %9, align 8, !dbg !5069
  %23 = call noundef zeroext i1 @_ZNK9__gnu_cxx5__ops15_Iter_less_iterclIPdS3_EEbT_T0_(ptr noundef nonnull align 1 dereferenceable(1) %5, ptr noundef %21, ptr noundef %22), !dbg !5070
  br i1 %23, label %24, label %27, !dbg !5070

24:                                               ; preds = %20
  %25 = load ptr, ptr %6, align 8, !dbg !5071
  %26 = load ptr, ptr %9, align 8, !dbg !5072
  call void @_ZSt9iter_swapIPdS0_EvT_T0_(ptr noundef %25, ptr noundef %26), !dbg !5073
  br label %30, !dbg !5073

27:                                               ; preds = %20
  %28 = load ptr, ptr %6, align 8, !dbg !5074
  %29 = load ptr, ptr %7, align 8, !dbg !5075
  call void @_ZSt9iter_swapIPdS0_EvT_T0_(ptr noundef %28, ptr noundef %29), !dbg !5076
  br label %30

30:                                               ; preds = %27, %24
  br label %31

31:                                               ; preds = %30, %17
  br label %51, !dbg !5077

32:                                               ; preds = %4
  %33 = load ptr, ptr %7, align 8, !dbg !5078
  %34 = load ptr, ptr %9, align 8, !dbg !5080
  %35 = call noundef zeroext i1 @_ZNK9__gnu_cxx5__ops15_Iter_less_iterclIPdS3_EEbT_T0_(ptr noundef nonnull align 1 dereferenceable(1) %5, ptr noundef %33, ptr noundef %34), !dbg !5081
  br i1 %35, label %36, label %39, !dbg !5081

36:                                               ; preds = %32
  %37 = load ptr, ptr %6, align 8, !dbg !5082
  %38 = load ptr, ptr %7, align 8, !dbg !5083
  call void @_ZSt9iter_swapIPdS0_EvT_T0_(ptr noundef %37, ptr noundef %38), !dbg !5084
  br label %50, !dbg !5084

39:                                               ; preds = %32
  %40 = load ptr, ptr %8, align 8, !dbg !5085
  %41 = load ptr, ptr %9, align 8, !dbg !5087
  %42 = call noundef zeroext i1 @_ZNK9__gnu_cxx5__ops15_Iter_less_iterclIPdS3_EEbT_T0_(ptr noundef nonnull align 1 dereferenceable(1) %5, ptr noundef %40, ptr noundef %41), !dbg !5088
  br i1 %42, label %43, label %46, !dbg !5088

43:                                               ; preds = %39
  %44 = load ptr, ptr %6, align 8, !dbg !5089
  %45 = load ptr, ptr %9, align 8, !dbg !5090
  call void @_ZSt9iter_swapIPdS0_EvT_T0_(ptr noundef %44, ptr noundef %45), !dbg !5091
  br label %49, !dbg !5091

46:                                               ; preds = %39
  %47 = load ptr, ptr %6, align 8, !dbg !5092
  %48 = load ptr, ptr %8, align 8, !dbg !5093
  call void @_ZSt9iter_swapIPdS0_EvT_T0_(ptr noundef %47, ptr noundef %48), !dbg !5094
  br label %49

49:                                               ; preds = %46, %43
  br label %50

50:                                               ; preds = %49, %36
  br label %51

51:                                               ; preds = %50, %31
  ret void, !dbg !5095
}

; Function Attrs: mustprogress noinline nounwind optnone sspstrong uwtable
define linkonce_odr noundef ptr @_ZSt21__unguarded_partitionIPdN9__gnu_cxx5__ops15_Iter_less_iterEET_S4_S4_S4_T0_(ptr noundef %0, ptr noundef %1, ptr noundef %2) #2 comdat !dbg !5096 {
  %4 = alloca %class.anon, align 1
  %5 = alloca ptr, align 8
  %6 = alloca ptr, align 8
  %7 = alloca ptr, align 8
  store ptr %0, ptr %5, align 8
    #dbg_declare(ptr %5, !5099, !DIExpression(), !5100)
  store ptr %1, ptr %6, align 8
    #dbg_declare(ptr %6, !5101, !DIExpression(), !5102)
  store ptr %2, ptr %7, align 8
    #dbg_declare(ptr %7, !5103, !DIExpression(), !5104)
    #dbg_declare(ptr %4, !5105, !DIExpression(), !5106)
  br label %8, !dbg !5107

8:                                                ; preds = %32, %3
  br label %9, !dbg !5108

9:                                                ; preds = %13, %8
  %10 = load ptr, ptr %5, align 8, !dbg !5110
  %11 = load ptr, ptr %7, align 8, !dbg !5111
  %12 = call noundef zeroext i1 @_ZNK9__gnu_cxx5__ops15_Iter_less_iterclIPdS3_EEbT_T0_(ptr noundef nonnull align 1 dereferenceable(1) %4, ptr noundef %10, ptr noundef %11), !dbg !5112
  br i1 %12, label %13, label %16, !dbg !5108

13:                                               ; preds = %9
  %14 = load ptr, ptr %5, align 8, !dbg !5113
  %15 = getelementptr inbounds nuw double, ptr %14, i32 1, !dbg !5113
  store ptr %15, ptr %5, align 8, !dbg !5113
  br label %9, !dbg !5108, !llvm.loop !5114

16:                                               ; preds = %9
  %17 = load ptr, ptr %6, align 8, !dbg !5116
  %18 = getelementptr inbounds double, ptr %17, i32 -1, !dbg !5116
  store ptr %18, ptr %6, align 8, !dbg !5116
  br label %19, !dbg !5117

19:                                               ; preds = %23, %16
  %20 = load ptr, ptr %7, align 8, !dbg !5118
  %21 = load ptr, ptr %6, align 8, !dbg !5119
  %22 = call noundef zeroext i1 @_ZNK9__gnu_cxx5__ops15_Iter_less_iterclIPdS3_EEbT_T0_(ptr noundef nonnull align 1 dereferenceable(1) %4, ptr noundef %20, ptr noundef %21), !dbg !5120
  br i1 %22, label %23, label %26, !dbg !5117

23:                                               ; preds = %19
  %24 = load ptr, ptr %6, align 8, !dbg !5121
  %25 = getelementptr inbounds double, ptr %24, i32 -1, !dbg !5121
  store ptr %25, ptr %6, align 8, !dbg !5121
  br label %19, !dbg !5117, !llvm.loop !5122

26:                                               ; preds = %19
  %27 = load ptr, ptr %5, align 8, !dbg !5124
  %28 = load ptr, ptr %6, align 8, !dbg !5126
  %29 = icmp ult ptr %27, %28, !dbg !5127
  br i1 %29, label %32, label %30, !dbg !5128

30:                                               ; preds = %26
  %31 = load ptr, ptr %5, align 8, !dbg !5129
  ret ptr %31, !dbg !5130

32:                                               ; preds = %26
  %33 = load ptr, ptr %5, align 8, !dbg !5131
  %34 = load ptr, ptr %6, align 8, !dbg !5132
  call void @_ZSt9iter_swapIPdS0_EvT_T0_(ptr noundef %33, ptr noundef %34), !dbg !5133
  %35 = load ptr, ptr %5, align 8, !dbg !5134
  %36 = getelementptr inbounds nuw double, ptr %35, i32 1, !dbg !5134
  store ptr %36, ptr %5, align 8, !dbg !5134
  br label %8, !dbg !5107, !llvm.loop !5135
}

; Function Attrs: mustprogress noinline nounwind optnone sspstrong uwtable
define linkonce_odr void @_ZSt9iter_swapIPdS0_EvT_T0_(ptr noundef %0, ptr noundef %1) #2 comdat !dbg !5137 {
  %3 = alloca ptr, align 8
  %4 = alloca ptr, align 8
  store ptr %0, ptr %3, align 8
    #dbg_declare(ptr %3, !5141, !DIExpression(), !5143)
  store ptr %1, ptr %4, align 8
    #dbg_declare(ptr %4, !5144, !DIExpression(), !5145)
  %5 = load ptr, ptr %3, align 8, !dbg !5146
  %6 = load ptr, ptr %4, align 8, !dbg !5147
  call void @_ZSt4swapIdENSt9enable_ifIXsr6__and_ISt6__not_ISt15__is_tuple_likeIT_EESt21is_move_constructibleIS3_ESt18is_move_assignableIS3_EEE5valueEvE4typeERS3_SC_(ptr noundef nonnull align 8 dereferenceable(8) %5, ptr noundef nonnull align 8 dereferenceable(8) %6) #13, !dbg !5148
  ret void, !dbg !5149
}

; Function Attrs: mustprogress noinline nounwind optnone sspstrong uwtable
define linkonce_odr void @_ZSt4swapIdENSt9enable_ifIXsr6__and_ISt6__not_ISt15__is_tuple_likeIT_EESt21is_move_constructibleIS3_ESt18is_move_assignableIS3_EEE5valueEvE4typeERS3_SC_(ptr noundef nonnull align 8 dereferenceable(8) %0, ptr noundef nonnull align 8 dereferenceable(8) %1) #2 comdat !dbg !5150 {
  %3 = alloca ptr, align 8
  %4 = alloca ptr, align 8
  %5 = alloca double, align 8
  store ptr %0, ptr %3, align 8
    #dbg_declare(ptr %3, !5161, !DIExpression(), !5162)
  store ptr %1, ptr %4, align 8
    #dbg_declare(ptr %4, !5163, !DIExpression(), !5164)
    #dbg_declare(ptr %5, !5165, !DIExpression(), !5166)
  %6 = load ptr, ptr %3, align 8, !dbg !5167, !nonnull !57, !align !1906
  %7 = load double, ptr %6, align 8, !dbg !5167
  store double %7, ptr %5, align 8, !dbg !5166
  %8 = load ptr, ptr %4, align 8, !dbg !5168, !nonnull !57, !align !1906
  %9 = load double, ptr %8, align 8, !dbg !5168
  %10 = load ptr, ptr %3, align 8, !dbg !5169, !nonnull !57, !align !1906
  store double %9, ptr %10, align 8, !dbg !5170
  %11 = load double, ptr %5, align 8, !dbg !5171
  %12 = load ptr, ptr %4, align 8, !dbg !5172, !nonnull !57, !align !1906
  store double %11, ptr %12, align 8, !dbg !5173
  ret void, !dbg !5174
}

; Function Attrs: mustprogress noinline optnone sspstrong uwtable
define linkonce_odr void @_ZSt13__heap_selectIPdN9__gnu_cxx5__ops15_Iter_less_iterEEvT_S4_S4_T0_(ptr noundef %0, ptr noundef %1, ptr noundef %2) #1 comdat !dbg !5175 {
  %4 = alloca %class.anon, align 1
  %5 = alloca ptr, align 8
  %6 = alloca ptr, align 8
  %7 = alloca ptr, align 8
  %8 = alloca ptr, align 8
  store ptr %0, ptr %5, align 8
    #dbg_declare(ptr %5, !5176, !DIExpression(), !5177)
  store ptr %1, ptr %6, align 8
    #dbg_declare(ptr %6, !5178, !DIExpression(), !5179)
  store ptr %2, ptr %7, align 8
    #dbg_declare(ptr %7, !5180, !DIExpression(), !5181)
    #dbg_declare(ptr %4, !5182, !DIExpression(), !5183)
  %9 = load ptr, ptr %5, align 8, !dbg !5184
  %10 = load ptr, ptr %6, align 8, !dbg !5185
  call void @_ZSt11__make_heapIPdN9__gnu_cxx5__ops15_Iter_less_iterEEvT_S4_RT0_(ptr noundef %9, ptr noundef %10, ptr noundef nonnull align 1 dereferenceable(1) %4), !dbg !5186
    #dbg_declare(ptr %8, !5187, !DIExpression(), !5189)
  %11 = load ptr, ptr %6, align 8, !dbg !5190
  store ptr %11, ptr %8, align 8, !dbg !5189
  br label %12, !dbg !5191

12:                                               ; preds = %25, %3
  %13 = load ptr, ptr %8, align 8, !dbg !5192
  %14 = load ptr, ptr %7, align 8, !dbg !5194
  %15 = icmp ult ptr %13, %14, !dbg !5195
  br i1 %15, label %16, label %28, !dbg !5196

16:                                               ; preds = %12
  %17 = load ptr, ptr %8, align 8, !dbg !5197
  %18 = load ptr, ptr %5, align 8, !dbg !5199
  %19 = call noundef zeroext i1 @_ZNK9__gnu_cxx5__ops15_Iter_less_iterclIPdS3_EEbT_T0_(ptr noundef nonnull align 1 dereferenceable(1) %4, ptr noundef %17, ptr noundef %18), !dbg !5200
  br i1 %19, label %20, label %24, !dbg !5200

20:                                               ; preds = %16
  %21 = load ptr, ptr %5, align 8, !dbg !5201
  %22 = load ptr, ptr %6, align 8, !dbg !5202
  %23 = load ptr, ptr %8, align 8, !dbg !5203
  call void @_ZSt10__pop_heapIPdN9__gnu_cxx5__ops15_Iter_less_iterEEvT_S4_S4_RT0_(ptr noundef %21, ptr noundef %22, ptr noundef %23, ptr noundef nonnull align 1 dereferenceable(1) %4), !dbg !5204
  br label %24, !dbg !5204

24:                                               ; preds = %20, %16
  br label %25, !dbg !5205

25:                                               ; preds = %24
  %26 = load ptr, ptr %8, align 8, !dbg !5206
  %27 = getelementptr inbounds nuw double, ptr %26, i32 1, !dbg !5206
  store ptr %27, ptr %8, align 8, !dbg !5206
  br label %12, !dbg !5207, !llvm.loop !5208

28:                                               ; preds = %12
  ret void, !dbg !5210
}

; Function Attrs: mustprogress noinline optnone sspstrong uwtable
define linkonce_odr void @_ZSt11__sort_heapIPdN9__gnu_cxx5__ops15_Iter_less_iterEEvT_S4_RT0_(ptr noundef %0, ptr noundef %1, ptr noundef nonnull align 1 dereferenceable(1) %2) #1 comdat !dbg !5211 {
  %4 = alloca ptr, align 8
  %5 = alloca ptr, align 8
  %6 = alloca ptr, align 8
  store ptr %0, ptr %4, align 8
    #dbg_declare(ptr %4, !5214, !DIExpression(), !5215)
  store ptr %1, ptr %5, align 8
    #dbg_declare(ptr %5, !5216, !DIExpression(), !5217)
  store ptr %2, ptr %6, align 8
    #dbg_declare(ptr %6, !5218, !DIExpression(), !5219)
  br label %7, !dbg !5220

7:                                                ; preds = %15, %3
  %8 = load ptr, ptr %5, align 8, !dbg !5221
  %9 = load ptr, ptr %4, align 8, !dbg !5222
  %10 = ptrtoint ptr %8 to i64, !dbg !5223
  %11 = ptrtoint ptr %9 to i64, !dbg !5223
  %12 = sub i64 %10, %11, !dbg !5223
  %13 = sdiv exact i64 %12, 8, !dbg !5223
  %14 = icmp sgt i64 %13, 1, !dbg !5224
  br i1 %14, label %15, label %22, !dbg !5220

15:                                               ; preds = %7
  %16 = load ptr, ptr %5, align 8, !dbg !5225
  %17 = getelementptr inbounds double, ptr %16, i32 -1, !dbg !5225
  store ptr %17, ptr %5, align 8, !dbg !5225
  %18 = load ptr, ptr %4, align 8, !dbg !5227
  %19 = load ptr, ptr %5, align 8, !dbg !5228
  %20 = load ptr, ptr %5, align 8, !dbg !5229
  %21 = load ptr, ptr %6, align 8, !dbg !5230, !nonnull !57
  call void @_ZSt10__pop_heapIPdN9__gnu_cxx5__ops15_Iter_less_iterEEvT_S4_S4_RT0_(ptr noundef %18, ptr noundef %19, ptr noundef %20, ptr noundef nonnull align 1 dereferenceable(1) %21), !dbg !5231
  br label %7, !dbg !5220, !llvm.loop !5232

22:                                               ; preds = %7
  ret void, !dbg !5234
}

; Function Attrs: mustprogress noinline optnone sspstrong uwtable
define linkonce_odr void @_ZSt10__pop_heapIPdN9__gnu_cxx5__ops15_Iter_less_iterEEvT_S4_S4_RT0_(ptr noundef %0, ptr noundef %1, ptr noundef %2, ptr noundef nonnull align 1 dereferenceable(1) %3) #1 comdat !dbg !49 {
  %5 = alloca ptr, align 8
  %6 = alloca ptr, align 8
  %7 = alloca ptr, align 8
  %8 = alloca ptr, align 8
  %9 = alloca double, align 8
  %10 = alloca %class.anon, align 1
  store ptr %0, ptr %5, align 8
    #dbg_declare(ptr %5, !5235, !DIExpression(), !5236)
  store ptr %1, ptr %6, align 8
    #dbg_declare(ptr %6, !5237, !DIExpression(), !5238)
  store ptr %2, ptr %7, align 8
    #dbg_declare(ptr %7, !5239, !DIExpression(), !5240)
  store ptr %3, ptr %8, align 8
    #dbg_declare(ptr %8, !5241, !DIExpression(), !5242)
    #dbg_declare(ptr %9, !5243, !DIExpression(), !5245)
  %11 = load ptr, ptr %7, align 8, !dbg !5246
  %12 = load double, ptr %11, align 8, !dbg !5246
  store double %12, ptr %9, align 8, !dbg !5245
  %13 = load ptr, ptr %5, align 8, !dbg !5247
  %14 = load double, ptr %13, align 8, !dbg !5247
  %15 = load ptr, ptr %7, align 8, !dbg !5248
  store double %14, ptr %15, align 8, !dbg !5249
  %16 = load ptr, ptr %5, align 8, !dbg !5250
  %17 = load ptr, ptr %6, align 8, !dbg !5251
  %18 = load ptr, ptr %5, align 8, !dbg !5252
  %19 = ptrtoint ptr %17 to i64, !dbg !5253
  %20 = ptrtoint ptr %18 to i64, !dbg !5253
  %21 = sub i64 %19, %20, !dbg !5253
  %22 = sdiv exact i64 %21, 8, !dbg !5253
  %23 = load double, ptr %9, align 8, !dbg !5254
  %24 = load ptr, ptr %8, align 8, !dbg !5255, !nonnull !57
  call void @_ZSt13__adjust_heapIPdldN9__gnu_cxx5__ops15_Iter_less_iterEEvT_T0_S5_T1_T2_(ptr noundef %16, i64 noundef 0, i64 noundef %22, double noundef %23), !dbg !5256
  ret void, !dbg !5257
}

; Function Attrs: mustprogress noinline optnone sspstrong uwtable
define linkonce_odr void @_ZSt13__adjust_heapIPdldN9__gnu_cxx5__ops15_Iter_less_iterEEvT_T0_S5_T1_T2_(ptr noundef %0, i64 noundef %1, i64 noundef %2, double noundef %3) #1 comdat !dbg !5258 {
  %5 = alloca %class.anon, align 1
  %6 = alloca ptr, align 8
  %7 = alloca i64, align 8
  %8 = alloca i64, align 8
  %9 = alloca double, align 8
  %10 = alloca i64, align 8
  %11 = alloca i64, align 8
  %12 = alloca %class.anon, align 1
  %13 = alloca %class.anon, align 1
  store ptr %0, ptr %6, align 8
    #dbg_declare(ptr %6, !5262, !DIExpression(), !5263)
  store i64 %1, ptr %7, align 8
    #dbg_declare(ptr %7, !5264, !DIExpression(), !5265)
  store i64 %2, ptr %8, align 8
    #dbg_declare(ptr %8, !5266, !DIExpression(), !5267)
  store double %3, ptr %9, align 8
    #dbg_declare(ptr %9, !5268, !DIExpression(), !5269)
    #dbg_declare(ptr %5, !5270, !DIExpression(), !5271)
    #dbg_declare(ptr %10, !5272, !DIExpression(), !5274)
  %14 = load i64, ptr %7, align 8, !dbg !5275
  store i64 %14, ptr %10, align 8, !dbg !5274
    #dbg_declare(ptr %11, !5276, !DIExpression(), !5277)
  %15 = load i64, ptr %7, align 8, !dbg !5278
  store i64 %15, ptr %11, align 8, !dbg !5277
  br label %16, !dbg !5279

16:                                               ; preds = %37, %4
  %17 = load i64, ptr %11, align 8, !dbg !5280
  %18 = load i64, ptr %8, align 8, !dbg !5281
  %19 = sub nsw i64 %18, 1, !dbg !5282
  %20 = sdiv i64 %19, 2, !dbg !5283
  %21 = icmp slt i64 %17, %20, !dbg !5284
  br i1 %21, label %22, label %46, !dbg !5279

22:                                               ; preds = %16
  %23 = load i64, ptr %11, align 8, !dbg !5285
  %24 = add nsw i64 %23, 1, !dbg !5287
  %25 = mul nsw i64 2, %24, !dbg !5288
  store i64 %25, ptr %11, align 8, !dbg !5289
  %26 = load ptr, ptr %6, align 8, !dbg !5290
  %27 = load i64, ptr %11, align 8, !dbg !5292
  %28 = getelementptr inbounds double, ptr %26, i64 %27, !dbg !5293
  %29 = load ptr, ptr %6, align 8, !dbg !5294
  %30 = load i64, ptr %11, align 8, !dbg !5295
  %31 = sub nsw i64 %30, 1, !dbg !5296
  %32 = getelementptr inbounds double, ptr %29, i64 %31, !dbg !5297
  %33 = call noundef zeroext i1 @_ZNK9__gnu_cxx5__ops15_Iter_less_iterclIPdS3_EEbT_T0_(ptr noundef nonnull align 1 dereferenceable(1) %5, ptr noundef %28, ptr noundef %32), !dbg !5298
  br i1 %33, label %34, label %37, !dbg !5298

34:                                               ; preds = %22
  %35 = load i64, ptr %11, align 8, !dbg !5299
  %36 = add nsw i64 %35, -1, !dbg !5299
  store i64 %36, ptr %11, align 8, !dbg !5299
  br label %37, !dbg !5300

37:                                               ; preds = %34, %22
  %38 = load ptr, ptr %6, align 8, !dbg !5301
  %39 = load i64, ptr %11, align 8, !dbg !5301
  %40 = getelementptr inbounds double, ptr %38, i64 %39, !dbg !5301
  %41 = load double, ptr %40, align 8, !dbg !5301
  %42 = load ptr, ptr %6, align 8, !dbg !5302
  %43 = load i64, ptr %7, align 8, !dbg !5303
  %44 = getelementptr inbounds double, ptr %42, i64 %43, !dbg !5304
  store double %41, ptr %44, align 8, !dbg !5305
  %45 = load i64, ptr %11, align 8, !dbg !5306
  store i64 %45, ptr %7, align 8, !dbg !5307
  br label %16, !dbg !5279, !llvm.loop !5308

46:                                               ; preds = %16
  %47 = load i64, ptr %8, align 8, !dbg !5310
  %48 = and i64 %47, 1, !dbg !5312
  %49 = icmp eq i64 %48, 0, !dbg !5313
  br i1 %49, label %50, label %70, !dbg !5314

50:                                               ; preds = %46
  %51 = load i64, ptr %11, align 8, !dbg !5315
  %52 = load i64, ptr %8, align 8, !dbg !5316
  %53 = sub nsw i64 %52, 2, !dbg !5317
  %54 = sdiv i64 %53, 2, !dbg !5318
  %55 = icmp eq i64 %51, %54, !dbg !5319
  br i1 %55, label %56, label %70, !dbg !5314

56:                                               ; preds = %50
  %57 = load i64, ptr %11, align 8, !dbg !5320
  %58 = add nsw i64 %57, 1, !dbg !5322
  %59 = mul nsw i64 2, %58, !dbg !5323
  store i64 %59, ptr %11, align 8, !dbg !5324
  %60 = load ptr, ptr %6, align 8, !dbg !5325
  %61 = load i64, ptr %11, align 8, !dbg !5325
  %62 = sub nsw i64 %61, 1, !dbg !5325
  %63 = getelementptr inbounds double, ptr %60, i64 %62, !dbg !5325
  %64 = load double, ptr %63, align 8, !dbg !5325
  %65 = load ptr, ptr %6, align 8, !dbg !5326
  %66 = load i64, ptr %7, align 8, !dbg !5327
  %67 = getelementptr inbounds double, ptr %65, i64 %66, !dbg !5328
  store double %64, ptr %67, align 8, !dbg !5329
